(lp0
(iClonalgClassifier
Anticorpo
p1
(dp2
S'afinidade'
p3
F1.0000507954224922
sS'coordenadas'
p4
(lp5
F0.2321535848476894
aF0.3239193137722237
aF0.4328966541051365
aF0.4572795287953549
aF0.3493812426293295
aF0.18478953190893166
aF0.36853223268123475
aF0.09453371185138179
aF0.3978077360046374
aF0.25183831772414
asba(iClonalgClassifier
Anticorpo
p6
(dp7
g3
F0.8727071626900903
sg4
(lp8
F0.04289570806028765
aF0.2703490041924263
aF0.5151180297199899
aF0.47402779547432705
aF0.18701997540918677
aF0.14314688031865427
aF0.06970941328214446
aF0.33235760073007986
aF0.44564536150777656
aF0.29932425295359877
asba(iClonalgClassifier
Anticorpo
p9
(dp10
g3
F0.7356377006979966
sg4
(lp11
F0.6344233217338854
aF0.5407827317803452
aF0.36909497983476747
aF0.476168996294921
aF0.43015497591822077
aF0.30882918793717007
aF0.29725486142992114
aF0.1971355464773874
aF0.569875337117409
aF0.32112587116610397
asba(iClonalgClassifier
Anticorpo
p12
(dp13
g3
F0.6637300345017725
sg4
(lp14
F0.39112874696737143
aF0.3511648418937086
aF0.5998224171980289
aF0.2761211016295576
aF0.38092060116508986
aF0.0503763737719488
aF0.3517187033692526
aF0.2824482638371457
aF0.6390830343320354
aF0.4417489396790218
asba(iClonalgClassifier
Anticorpo
p15
(dp16
g3
F0.6475455821282047
sg4
(lp17
F0.5302878653600016
aF0.5312400784625215
aF0.6919013644067027
aF0.26168431912636025
aF0.4738206997362211
aF0.48592682036354334
aF0.15190428962334848
aF0.13758019395710086
aF0.2298542960203093
aF0.40175220596070965
asba(iClonalgClassifier
Anticorpo
p18
(dp19
g3
F0.6337317262411236
sg4
(lp20
F0.36049193829462606
aF0.3450208863549948
aF0.6345161013806375
aF0.11365715592570982
aF0.2699991961433852
aF0.25845846754281576
aF0.20467677235938955
aF0.5655628932339205
aF0.5495935548267767
aF0.252308419986405
asba(iClonalgClassifier
Anticorpo
p21
(dp22
g3
F0.5778747089800746
sg4
(lp23
F0.4705992700138736
aF0.10678306175676773
aF0.6753688099363062
aF0.24537629439100295
aF0.3231020837686667
aF0.33637566566960064
aF0.21496592165775016
aF0.11667525043519848
aF0.7823573928875208
aF0.3260111972249253
asba(iClonalgClassifier
Anticorpo
p24
(dp25
g3
F0.5502522115806429
sg4
(lp26
F0.48449118233366445
aF0.23197512559299466
aF0.402257280793297
aF0.25922262203296054
aF0.20553542641571015
aF0.32933718084463537
aF0.5187447102099209
aF0.5926558242118316
aF0.11697131941308066
aF0.0737002270902114
asba(iClonalgClassifier
Anticorpo
p27
(dp28
g3
F0.5467939599344308
sg4
(lp29
F0.6512832782604612
aF0.4093846753225308
aF0.5562292416163711
aF0.5627962522726226
aF0.4919045028398831
aF0.49341117048013766
aF0.1999628401401618
aF0.10579557055525178
aF0.40315726389629924
aF0.5081227497016223
asba(iClonalgClassifier
Anticorpo
p30
(dp31
g3
F0.5161087419637507
sg4
(lp32
F0.5967146495110996
aF0.19924518370713434
aF0.34232581518746835
aF0.047047214327106956
aF0.16853020568079904
aF0.6968815976147309
aF0.11278645815658701
aF0.31158695061346153
aF0.3731401843141566
aF0.20798784870147805
asba(iClonalgClassifier
Anticorpo
p33
(dp34
g3
F0.4925844992194861
sg4
(lp35
F0.6518757017518043
aF0.2556448418137985
aF0.5035428941682368
aF0.5068893519176193
aF0.38232527900594304
aF0.11743584827819437
aF0.3878536201994921
aF0.3859292506425024
aF0.39428203542745405
aF0.6459788885726164
asba(iClonalgClassifier
Anticorpo
p36
(dp37
g3
F0.4781518027783343
sg4
(lp38
F0.41610318241470784
aF0.2240635764987659
aF0.37485005593380216
aF0.07170175019903342
aF0.24946146434760186
aF0.648516523031104
aF0.26646130649674443
aF0.42223289259203994
aF0.3741780931490399
aF0.2760859916094189
asba(iClonalgClassifier
Anticorpo
p39
(dp40
g3
F0.47418133599958806
sg4
(lp41
F0.3872280572046834
aF0.35639259353464303
aF0.5932861526873052
aF0.04888962160801989
aF0.500261232370198
aF0.036012893070716596
aF0.14395744650845346
aF0.7797354768415241
aF0.3388571235961148
aF0.19943539612395847
asba(iClonalgClassifier
Anticorpo
p42
(dp43
g3
F0.46139906864143165
sg4
(lp44
F0.148
aF0.569
aF0.781
aF0.792
aF0.328
aF0.229
aF0.15
aF0.18
aF0.629
aF0.488
asba(iClonalgClassifier
Anticorpo
p45
(dp46
g3
F0.4159694459677747
sg4
(lp47
F0.698
aF0.109
aF0.512
aF0.207
aF0.126
aF0.339
aF0.533
aF0.503
aF0.161
aF0.448
asba(iClonalgClassifier
Anticorpo
p48
(dp49
g3
F0.4103426674682493
sg4
(lp50
F0.41540699345376736
aF0.23648276736839524
aF0.5203105656061883
aF0.13834822659511467
aF0.258986255874539
aF0.5473795281497909
aF0.3703731565780601
aF0.3877662923359381
aF0.4370811916337692
aF0.5601694548823349
asba(iClonalgClassifier
Anticorpo
p51
(dp52
g3
F0.40223528742941084
sg4
(lp53
F0.4695287604378819
aF0.6497062941989151
aF0.39879346674912103
aF0.3918513149511313
aF0.4999332884916543
aF0.4191266709628711
aF0.05812435289149449
aF0.778083697532363
aF0.11672623023011622
aF0.29774835939166633
asba(iClonalgClassifier
Anticorpo
p54
(dp55
g3
F0.39796733781910415
sg4
(lp56
F0.2733637391773486
aF0.3475847947408624
aF0.08353917124862305
aF0.3718693563666679
aF0.644931219126045
aF0.4218330253726382
aF0.2065113630728362
aF0.48014710384629694
aF0.399031822585572
aF0.4373415598211017
asba(iClonalgClassifier
Anticorpo
p57
(dp58
g3
F0.39796733781910415
sg4
(lp59
F0.2246392072986645
aF0.18124737708533206
aF0.8167686633594909
aF0.2640322443310275
aF0.3180340556810643
aF0.43390378810614805
aF0.07921706911891675
aF0.605258621740387
aF0.54020709511223
aF0.5197596040078104
asba(iClonalgClassifier
Anticorpo
p60
(dp61
g3
F0.39796733781910415
sg4
(lp62
F0.16232101692076334
aF0.5109794118095995
aF0.20405647386749565
aF0.6833077469600484
aF0.3942093982437134
aF0.5650253174091766
aF0.020834346648230778
aF0.6641031210626851
aF0.5363743843738735
aF0.06650372521990845
asba.