(lp0
(iClonalgClassifier
Anticorpo
p1
(dp2
S'afinidade'
p3
F1.0000820017046554
sS'coordenadas'
p4
(lp5
F0.27491361920515955
aF0.6720099717050125
aF0.590962323535435
aF0.47147878734840765
aF0.2315723882974734
aF0.6952879046393907
aF0.06825496627622113
aF0.5221155737323624
aF0.483885965557819
aF0.35533029961430035
asba(iClonalgClassifier
Anticorpo
p6
(dp7
g3
F0.8701351784680004
sg4
(lp8
F0.7498312972733459
aF0.4472817398784517
aF0.2914525252962789
aF0.5060943954923902
aF0.6010911730749264
aF0.3696359190910848
aF0.04223335196268695
aF0.36595425511771545
aF0.6115244884486836
aF0.3675632764170189
asba(iClonalgClassifier
Anticorpo
p9
(dp10
g3
F0.7299878319392565
sg4
(lp11
F0.7621778678759362
aF0.8995866611728774
aF0.4513985789960449
aF0.7671309789357003
aF0.5909085641374591
aF0.9787608224432899
aF0.30967710271798443
aF0.5146574850420809
aF0.7481336810128857
aF0.636809661858029
asba(iClonalgClassifier
Anticorpo
p12
(dp13
g3
F0.7154103344426138
sg4
(lp14
F0.7625550450585283
aF0.8054073570493863
aF0.190116533755938
aF0.40530431539439776
aF0.47316566655582554
aF0.35271554779146586
aF0.31090319302631114
aF0.252698587887693
aF0.7024666390420434
aF0.33045021698637206
asba(iClonalgClassifier
Anticorpo
p15
(dp16
g3
F0.6703242866947384
sg4
(lp17
F0.29194378988517433
aF0.47145709778441414
aF0.7066998031707502
aF0.3826274587467772
aF0.37949010481794576
aF0.38457165722310616
aF0.40639495518074753
aF0.2233828818429896
aF0.8595449413851933
aF0.5134268743773769
asba(iClonalgClassifier
Anticorpo
p18
(dp19
g3
F0.6422883147664676
sg4
(lp20
F0.8330199256344719
aF0.31931837038425276
aF0.6865269574357729
aF0.2394507513104825
aF0.544306214948094
aF0.680484980735718
aF0.00032065855630391757
aF0.5265113092145065
aF0.6934165442282012
aF0.11241971057747623
asba(iClonalgClassifier
Anticorpo
p21
(dp22
g3
F0.6056067602152643
sg4
(lp23
F0.512287648644542
aF0.6529093044094343
aF0.6465294078725792
aF0.5534450168553421
aF0.6450940648164584
aF0.1837013580234243
aF0.14627810520716208
aF0.517763797819167
aF0.3501554438532535
aF0.13467088238916644
asba(iClonalgClassifier
Anticorpo
p24
(dp25
g3
F0.6042790946941345
sg4
(lp26
F0.709
aF0.563
aF0.227
aF0.523
aF0.981
aF0.689
aF0.224
aF0.745
aF0.287
aF0.357
asba(iClonalgClassifier
Anticorpo
p27
(dp28
g3
F0.5243303759487246
sg4
(lp29
F0.17720704117982017
aF0.4242499748023051
aF0.6489389784893788
aF0.3980804582813164
aF0.650370973067755
aF0.6327953844694097
aF0.1718023050282975
aF0.3799049344419597
aF0.25005071094886666
aF0.05289451735430598
asba(iClonalgClassifier
Anticorpo
p30
(dp31
g3
F0.5199495299260606
sg4
(lp32
F0.275879679567101
aF0.5811296113509451
aF0.8956407281784889
aF0.5172944581221937
aF0.39426837531529596
aF0.4401630761126858
aF0.3497699037241006
aF0.36065112869646804
aF0.2978774443198594
aF0.28726337669990387
asba(iClonalgClassifier
Anticorpo
p33
(dp34
g3
F0.5068378406679341
sg4
(lp35
F0.47286600613191
aF0.7236763356453749
aF0.9094597585363922
aF0.8228795210978513
aF0.30880862668950837
aF0.6976372478597184
aF0.3658371695276186
aF0.3721057457388576
aF0.8129757331215071
aF0.755705137379162
asba(iClonalgClassifier
Anticorpo
p36
(dp37
g3
F0.4850811542149771
sg4
(lp38
F0.565
aF0.548
aF0.314
aF0.599
aF0.268
aF0.431
aF0.585
aF0.331
aF0.441
aF0.684
asba(iClonalgClassifier
Anticorpo
p39
(dp40
g3
F0.4716064135142723
sg4
(lp41
F0.573
aF0.985
aF0.872
aF0.595
aF0.919
aF0.209
aF0.36
aF0.569
aF0.927
aF0.297
asba(iClonalgClassifier
Anticorpo
p42
(dp43
g3
F0.4494941552227795
sg4
(lp44
F0.021
aF0.681
aF0.158
aF0.535
aF0.721
aF0.476
aF0.043
aF0.682
aF0.246
aF0.831
asba(iClonalgClassifier
Anticorpo
p45
(dp46
g3
F0.4447521315506664
sg4
(lp47
F0.73
aF0.274
aF0.858
aF0.391
aF0.812
aF0.888
aF0.139
aF0.821
aF0.607
aF0.924
asba(iClonalgClassifier
Anticorpo
p48
(dp49
g3
F0.43420328010794074
sg4
(lp50
F0.5914995473444884
aF0.508944546169011
aF0.7203025192242546
aF0.33702918215437294
aF0.4641062510406292
aF0.1142626829002655
aF0.13282715641184153
aF0.3124546304891594
aF0.16918239345929093
aF0.48221713611302713
asba(iClonalgClassifier
Anticorpo
p51
(dp52
g3
F0.42721990899818746
sg4
(lp53
F0.3361301230284475
aF0.7346399429792351
aF0.4539600749462083
aF0.48745623188431336
aF0.23513220798756712
aF0.0670097954221064
aF0.2982375453613593
aF0.5353757503986026
aF0.33030399135473765
aF0.2829001365070065
asba(iClonalgClassifier
Anticorpo
p54
(dp55
g3
F0.41818347907276804
sg4
(lp56
F0.36178909107283075
aF0.8144494012949913
aF0.582332540972682
aF0.4598138045566304
aF0.1036840545871241
aF0.2774233339677707
aF0.061033392515325954
aF0.22988001783573997
aF0.8574448192751234
aF0.06050356559965493
asba(iClonalgClassifier
Anticorpo
p57
(dp58
g3
F0.4181401974430768
sg4
(lp59
F0.5387020170555984
aF0.38907435631135395
aF0.5263006139556783
aF0.1135144885606252
aF0.31371123719730654
aF0.19202683136755497
aF0.07255736815588379
aF0.3308344387477078
aF0.44213884923348207
aF0.0820732702711947
asba(iClonalgClassifier
Anticorpo
p60
(dp61
g3
F0.4006091780786007
sg4
(lp62
F0.68942494047534
aF0.49695255790565623
aF0.7242638151696205
aF0.21437056992110298
aF0.018364281155512557
aF0.3159403569949443
aF0.24784234810755917
aF0.23971298570029276
aF0.8586374484391881
aF0.3742036450347215
asba.