(lp0
(iClonalgClassifier_M
Anticorpo
p1
(dp2
S'afinidade'
p3
F1.000092940168358
sS'coordenadas'
p4
(lp5
F0.7788413250986135
aF0.8908350346346254
aF0.6731469236892133
aF0.6316791124237741
aF0.8098712369363507
aF0.4382202459288723
aF0.3368048168414454
aF0.9560491479949818
aF0.32594439367597056
aF0.5499899152342773
asba(iClonalgClassifier_M
Anticorpo
p6
(dp7
g3
F0.886562484795043
sg4
(lp8
F0.9560850936841775
aF0.9199963954238228
aF0.6074782346814401
aF0.5322688992990028
aF0.39028858721018006
aF0.43644460540612284
aF0.6030972268601522
aF0.5429785269650671
aF0.7974696868752631
aF0.12648745124760052
asba(iClonalgClassifier_M
Anticorpo
p9
(dp10
g3
F0.7929482708554089
sg4
(lp11
F0.8663915158043137
aF0.9769371294830499
aF0.9632035419873725
aF0.6078868385773205
aF0.35120707017022895
aF0.48515396139835487
aF0.7926741591152455
aF0.9649602221624982
aF0.3678967282527139
aF0.8938733906037041
asba(iClonalgClassifier_M
Anticorpo
p12
(dp13
g3
F0.7649414472718767
sg4
(lp14
F0.9584248533441669
aF0.7426254835076735
aF0.9566550017030051
aF0.9369850768853084
aF0.8283918278713779
aF0.6939193623982692
aF0.36816835409055304
aF0.43434533800486697
aF0.9590279072162566
aF0.37840329291195424
asba(iClonalgClassifier_M
Anticorpo
p15
(dp16
g3
F0.7233490469060668
sg4
(lp17
F0.977103751026904
aF0.5009844995590397
aF0.7291447317739922
aF0.8123376867335433
aF0.897402234697104
aF0.5177940920037745
aF0.5518340851954969
aF0.9661654579560685
aF0.8500021734886954
aF0.3793209062332181
asba(iClonalgClassifier_M
Anticorpo
p18
(dp19
g3
F0.5372158267893038
sg4
(lp20
F0.3466073843323722
aF0.28949485316412493
aF0.48264857216222823
aF0.6952692983788111
aF0.27393262775392035
aF0.3051708732130528
aF0.4595201096561696
aF0.7291915526025309
aF0.5306357697055332
aF0.1327007297957199
asba(iClonalgClassifier_M
Anticorpo
p21
(dp22
g3
F0.5372158267893038
sg4
(lp23
F0.7561787420146243
aF0.4304722905051863
aF0.9090107048618039
aF0.476552144427632
aF0.24952812046529618
aF0.765937479862891
aF0.11701232935079113
aF0.6514521940192386
aF0.46976352574909114
aF0.8849946008331216
asba(iClonalgClassifier_M
Anticorpo
p24
(dp25
g3
F0.5372158267893038
sg4
(lp26
F0.8202883447280939
aF0.3646655585644838
aF0.2479210327610095
aF0.7599693184885411
aF0.4251087119865265
aF0.42242320020542945
aF0.5891263573818547
aF0.5506709609173702
aF0.4838514866297445
aF0.6479052573597857
asba(iClonalgClassifier_M
Anticorpo
p27
(dp28
g3
F0.5372158267893038
sg4
(lp29
F0.4778926816203137
aF0.5197117779014213
aF0.5574304166652881
aF0.5301975106051493
aF0.6246963026990154
aF0.756547561930322
aF0.06428318365333768
aF0.44859918148203193
aF0.8557264973722698
aF0.27651975347253366
asba(iClonalgClassifier_M
Anticorpo
p30
(dp31
g3
F0.5372158267893038
sg4
(lp32
F0.7861229179976345
aF0.49488086662195413
aF0.6776899439353502
aF0.8706827279259303
aF0.8120077962877821
aF0.3752720432410542
aF0.30145333697636056
aF0.07387047460462098
aF0.5830230607715325
aF0.34261657988678734
asba(iClonalgClassifier_M
Anticorpo
p33
(dp34
g3
F0.5372158267893038
sg4
(lp35
F0.6712764405382727
aF0.6642428568366461
aF0.8418564073965216
aF0.3612135161617459
aF0.4971487729725276
aF0.7645898873175254
aF0.24559149008191533
aF0.30970518467759206
aF0.12017601748891527
aF0.10171446123720165
asba(iClonalgClassifier_M
Anticorpo
p36
(dp37
g3
F0.5372158267893038
sg4
(lp38
F0.9750266331928055
aF0.8319971134435707
aF0.4990662602860616
aF0.289869004324882
aF0.5993314789305793
aF0.44286659186376065
aF0.03714981163180231
aF0.44458174928925703
aF0.5668081249905128
aF0.13653820256310978
asba(iClonalgClassifier_M
Anticorpo
p39
(dp40
g3
F0.5372158267893038
sg4
(lp41
F0.6839395152125524
aF0.8728314783869174
aF0.27950798031464497
aF0.8056623286199682
aF0.8498055228093265
aF0.4847234145759431
aF0.146161847261906
aF0.6313514752697905
aF0.3533444385436085
aF0.00036525809977257587
asba(iClonalgClassifier_M
Anticorpo
p42
(dp43
g3
F0.5372158267893038
sg4
(lp44
F0.28862739822754263
aF0.8958505548107807
aF0.6406255938044039
aF0.8429265772857291
aF0.43954870272005353
aF0.08300993758165703
aF0.5469337902208714
aF0.979268386938275
aF0.2195898934104289
aF0.35222068343752383
asba(iClonalgClassifier_M
Anticorpo
p45
(dp46
g3
F0.5372158267893038
sg4
(lp47
F0.2904330634923135
aF0.5838224809317426
aF0.488014354058082
aF0.7756231201670032
aF0.598881466974402
aF0.8162153148349436
aF0.4450361291053768
aF0.6871930971749859
aF0.6465757857777427
aF0.9080133253473519
asba(iClonalgClassifier_M
Anticorpo
p48
(dp49
g3
F0.5372158267893038
sg4
(lp50
F0.13631175680668306
aF0.5185084400625869
aF0.479192075009293
aF0.5883237011176856
aF0.24672694815628599
aF0.4717468891508084
aF0.5259291870032075
aF0.5540169961210529
aF0.865966284906379
aF0.5663892307732064
asba(iClonalgClassifier_M
Anticorpo
p51
(dp52
g3
F0.5372158267893038
sg4
(lp53
F0.7485030315473354
aF0.8613861380146989
aF0.16790949832945515
aF0.38974242330760034
aF0.8770935363686176
aF0.2373150291206191
aF0.3449750309684992
aF0.8880610713695725
aF0.26552717679573734
aF0.20409393747979365
asba(iClonalgClassifier_M
Anticorpo
p54
(dp55
g3
F0.5327733094281736
sg4
(lp56
F0.6028594008067167
aF0.5587195895012852
aF0.7349702372594892
aF0.5429282266034509
aF0.3409047293345333
aF0.6753238371150116
aF0.5869759310108353
aF0.9187677194770162
aF0.057064194957326675
aF0.21118287872216698
asba(iClonalgClassifier_M
Anticorpo
p57
(dp58
g3
F0.5315702876376756
sg4
(lp59
F0.6208288569269262
aF0.7087547058960427
aF0.8798594506360147
aF0.8289770549234159
aF0.7320926486854922
aF0.8917211847633923
aF0.0516033365808607
aF0.3409218483905477
aF0.7935082717782906
aF0.08440618733212207
asba(iClonalgClassifier_M
Anticorpo
p60
(dp61
g3
F0.5168192933890469
sg4
(lp62
F0.754
aF0.59
aF0.593
aF0.92
aF0.558
aF0.255
aF0.351
aF0.859
aF0.964
aF0.82
asba.