(lp0
(iClonalgClassifier_M
Anticorpo
p1
(dp2
S'afinidade'
p3
F1.0000800222598782
sS'coordenadas'
p4
(lp5
F0.6181090983443228
aF0.3146912275743383
aF0.9344576565601448
aF0.766351495373028
aF0.4007011136306483
aF0.7802250284806754
aF0.4784857112270672
aF0.873326230695474
aF0.25262149034010817
aF0.46060773827610796
asba(iClonalgClassifier_M
Anticorpo
p6
(dp7
g3
F0.4468642533786199
sg4
(lp8
F0.4299994668676511
aF0.21678178704563328
aF0.42444635722807955
aF1.133563371185554
aF0.5503086836986916
aF0.5385013342338036
aF0.6720506981656492
aF0.6437648848726711
aF0.6200426941995674
aF0.443568590189152
asba(iClonalgClassifier_M
Anticorpo
p9
(dp10
g3
F0.3205809609481707
sg4
(lp11
F0.772
aF0.602
aF0.309
aF0.499
aF0.114
aF0.931
aF0.491
aF0.773
aF0.341
aF0.068
asba(iClonalgClassifier_M
Anticorpo
p12
(dp13
g3
F0.1819999276430123
sg4
(lp14
F0.7451162509449469
aF0.617145187562991
aF0.7844125568241458
aF0.8937909543305467
aF0.5344741383454813
aF1.0281465579687274
aF0.5682313289549822
aF0.2674320324708268
aF0.2508992802946168
aF0.49550041183521315
asba(iClonalgClassifier_M
Anticorpo
p15
(dp16
g3
F0.07893755412738981
sg4
(lp17
F0.9493419742927838
aF0.1884539097698188
aF0.41341941599734233
aF0.6770343161617339
aF0.7566691423143441
aF0.07511067886743066
aF0.26466706357964215
aF0.7451646074274851
aF0.7013651952005365
aF0.06338290539940516
asba.