(lp0
(iClonalgClassifier
Anticorpo
p1
(dp2
S'afinidade'
p3
F1.000188272385533
sS'coordenadas'
p4
(lp5
F0.6960147037560972
aF0.27107010824749067
aF0.48600217682013924
aF0.43698126623638717
aF0.358014876750692
aF0.3830109032825238
aF0.16101593824331875
aF0.22201593931854002
aF0.5819821877226349
aF0.3349575947925412
asba(iClonalgClassifier
Anticorpo
p6
(dp7
g3
F0.9097812377432669
sg4
(lp8
F0.5442857115706372
aF0.6276181527956394
aF0.49391069517954195
aF0.3903689267544998
aF0.3785670841260884
aF0.3453240874787396
aF0.24773510301931206
aF0.5679602378735324
aF0.5832859278860558
aF0.27353543162533117
asba(iClonalgClassifier
Anticorpo
p9
(dp10
g3
F0.704254309132727
sg4
(lp11
F0.20741636281296885
aF0.5949389943643266
aF0.2678844020947474
aF0.331740999086804
aF0.6648218536297503
aF0.2412856352237173
aF0.193998572056186
aF0.3048272048962195
aF0.5024758497832645
aF0.39178647505295094
asba(iClonalgClassifier
Anticorpo
p12
(dp13
g3
F0.6919868224708043
sg4
(lp14
F0.4804234730773883
aF0.4087493399971051
aF0.5127815634323459
aF0.24881721911070237
aF0.6268588672680512
aF0.438555555627724
aF0.3384893629867248
aF0.0984068843125059
aF0.25888655674552397
aF0.2162781163068256
asba(iClonalgClassifier
Anticorpo
p15
(dp16
g3
F0.6782570763546332
sg4
(lp17
F0.5839522099937571
aF0.42624780642015575
aF0.766064330989209
aF0.21576039542790446
aF0.46087942082206607
aF0.5605966816073878
aF0.17665857684609793
aF0.15743421028715807
aF0.7223640193302262
aF0.3655579685664593
asba(iClonalgClassifier
Anticorpo
p18
(dp19
g3
F0.6769288256553627
sg4
(lp20
F0.3867289666661716
aF0.5024059148663639
aF0.15950628715606008
aF0.40157657247970946
aF0.3096372781928946
aF0.3635394024698702
aF0.24210155237182387
aF0.2581658897969069
aF0.5637874377988634
aF0.017001403561669397
asba(iClonalgClassifier
Anticorpo
p21
(dp22
g3
F0.6700267626484903
sg4
(lp23
F0.46731498251739245
aF0.7330428042762306
aF0.348930262692503
aF0.2622058056173669
aF0.20664847857215046
aF0.3883713408857363
aF0.23341702213113483
aF0.13530095091870034
aF0.6759069093930485
aF0.47558064541266937
asba(iClonalgClassifier
Anticorpo
p24
(dp25
g3
F0.6422810417656837
sg4
(lp26
F0.798535539317083
aF0.5530269021639952
aF0.4408441794726112
aF0.21320421461944258
aF0.30313334203402204
aF0.45983651469680914
aF0.26645637305054565
aF0.2232664920982457
aF0.7403137284222122
aF0.3421124627610335
asba(iClonalgClassifier
Anticorpo
p27
(dp28
g3
F0.6263521634685976
sg4
(lp29
F0.5125178448265265
aF0.8433857194750225
aF0.42036455237511083
aF0.1605914853407224
aF0.452441222548733
aF0.41061461773804186
aF0.24362619618920106
aF0.2844718842759108
aF0.28073853860929304
aF0.1949779063011107
asba(iClonalgClassifier
Anticorpo
p30
(dp31
g3
F0.6141125710277705
sg4
(lp32
F0.4271571447588688
aF0.6396779437921711
aF0.3944915320294437
aF0.25076262830977913
aF0.4747311183770271
aF0.701456431532718
aF0.25896173804669104
aF0.25675479646142874
aF0.2610231520606073
aF0.23430390953899125
asba(iClonalgClassifier
Anticorpo
p33
(dp34
g3
F0.6067501569863778
sg4
(lp35
F0.4062166490006013
aF0.7064594703206909
aF0.1723056842624186
aF0.16358560185636306
aF0.6285338020055035
aF0.2614327989342075
aF0.04384351279506026
aF0.2626001616027079
aF0.4087673919033287
aF0.4161438818299596
asba(iClonalgClassifier
Anticorpo
p36
(dp37
g3
F0.6052484795621645
sg4
(lp38
F0.41482531500436454
aF0.7095178761694124
aF0.4113145931252214
aF0.34663379564637525
aF0.47493854411779113
aF0.3099383562026352
aF0.44754001061671195
aF0.36431691649690806
aF0.29206086407204745
aF0.44465665286307005
asba(iClonalgClassifier
Anticorpo
p39
(dp40
g3
F0.6001799368601681
sg4
(lp41
F0.4711283865519082
aF0.4407798803155061
aF0.20688844967028852
aF0.3910329522002163
aF0.4613506473673774
aF0.5061411988757794
aF0.25986251190226844
aF0.5655349520942823
aF0.390830415073642
aF0.14308937091014337
asba(iClonalgClassifier
Anticorpo
p42
(dp43
g3
F0.5696444296505417
sg4
(lp44
F0.6967724548800002
aF0.6474562706905256
aF0.4048941817888863
aF0.13006141535658908
aF0.3340512131161406
aF0.44273523563522327
aF0.23684001650947228
aF0.18621970101133004
aF0.5701779986315977
aF0.6122699371085532
asba(iClonalgClassifier
Anticorpo
p45
(dp46
g3
F0.5556341841816578
sg4
(lp47
F0.7834432980960581
aF0.6185639311122986
aF0.5500324894358015
aF0.21577444192952272
aF0.5692378445984865
aF0.03149205376397587
aF0.2305434224467033
aF0.10870636281440929
aF0.5113409985524983
aF0.32055126287976765
asba(iClonalgClassifier
Anticorpo
p48
(dp49
g3
F0.54596428400194
sg4
(lp50
F0.6366893177556416
aF0.7065761819579002
aF0.6988943779600615
aF0.5220140742569173
aF0.519791385649777
aF0.35905667358123705
aF0.00500701238956201
aF0.6035931538646744
aF0.41036584757898953
aF0.4127203057965707
asba(iClonalgClassifier
Anticorpo
p51
(dp52
g3
F0.5407131138870436
sg4
(lp53
F0.33954429655636015
aF0.783737328295552
aF0.36085072856416706
aF0.37695678560417933
aF0.06744377759712396
aF0.38916483854248984
aF0.08627425613616099
aF0.056586417723685174
aF0.556603365329939
aF0.3975013642768624
asba(iClonalgClassifier
Anticorpo
p54
(dp55
g3
F0.5187663221267551
sg4
(lp56
F0.4559266125072508
aF0.49721284636727425
aF0.4338547698523827
aF0.44266939712611564
aF0.38337193439638934
aF0.07401542747020325
aF0.2905661208221969
aF0.5730241063500138
aF0.5901823022129491
aF0.5789940776334581
asba(iClonalgClassifier
Anticorpo
p57
(dp58
g3
F0.5142308376622773
sg4
(lp59
F0.23225734916658453
aF0.3822637873787486
aF0.5251702754736958
aF0.3791752015933556
aF0.4322186787745987
aF0.3968377084159693
aF0.2024493852769756
aF0.30924580722180406
aF0.07841661859604178
aF0.4757713413139634
asba(iClonalgClassifier
Anticorpo
p60
(dp61
g3
F0.5126878114930872
sg4
(lp62
F0.3146475565804408
aF0.3959185140067379
aF0.6456066753126732
aF0.6112051715122782
aF0.03224674584038673
aF0.17941218150033497
aF0.13300046229764337
aF0.26182659333432834
aF0.4885264950161783
aF0.2334926362928764
asba(iClonalgClassifier
Anticorpo
p63
(dp64
g3
F0.5121408347429613
sg4
(lp65
F0.40311913365038443
aF0.6437823892476914
aF0.5678521448911487
aF0.5876504117908041
aF0.10409823598337613
aF0.27772934941865135
aF0.22530358634199618
aF0.20297111088105751
aF0.22643344678350794
aF0.4394921793586362
asba(iClonalgClassifier
Anticorpo
p66
(dp67
g3
F0.5107206562652029
sg4
(lp68
F0.2953116056140674
aF0.4636781716416407
aF0.21231436247208516
aF0.6258530016774952
aF0.695372409934809
aF0.5019132707658537
aF0.04293246180528981
aF0.284935188765644
aF0.7620006543057436
aF0.22672648785370333
asba(iClonalgClassifier
Anticorpo
p69
(dp70
g3
F0.4928510037381135
sg4
(lp71
F0.5818921267540349
aF0.5160986259371878
aF0.6007702012345538
aF0.6158285131906895
aF0.5659236824664252
aF0.3468079762940023
aF0.17696419514425454
aF0.19964570937404097
aF0.08853209395100385
aF0.49958141900065073
asba(iClonalgClassifier
Anticorpo
p72
(dp73
g3
F0.4915669911897036
sg4
(lp74
F0.3192066706235368
aF0.17433152779815556
aF0.4407476363491012
aF0.1721108341343138
aF0.6694728899889814
aF0.2264183866914837
aF0.3544540873393967
aF0.20380195814306626
aF0.6093180717214823
aF0.1320409080534683
asba(iClonalgClassifier
Anticorpo
p75
(dp76
g3
F0.48433037634625076
sg4
(lp77
F0.24524311381702915
aF0.3581495901160434
aF0.543080982944076
aF0.7519796809333289
aF0.3400361345224251
aF0.31596823261749113
aF0.17054012255118634
aF0.16869374402383205
aF0.225813095881493
aF0.16651399118608617
asba(iClonalgClassifier
Anticorpo
p78
(dp79
g3
F0.48333343262223294
sg4
(lp80
F0.5131798301559738
aF0.4054455341965327
aF0.5947308098481604
aF0.11717950454956387
aF0.26672315635503663
aF0.24255559108497432
aF0.39084371312940613
aF0.5134010278802783
aF0.31410591528280307
aF0.4418931310418751
asba(iClonalgClassifier
Anticorpo
p81
(dp82
g3
F0.4719770978028197
sg4
(lp83
F0.21018363052963074
aF0.17615456646364475
aF0.48896978634746224
aF0.30620104686630056
aF0.7437027983256188
aF0.3886084697932722
aF0.11672157411247455
aF0.4391581192017107
aF0.3164422894767082
aF0.20510550532952526
asba(iClonalgClassifier
Anticorpo
p84
(dp85
g3
F0.46372131561248287
sg4
(lp86
F0.5358887926012488
aF0.34559642668200613
aF0.7046436803200408
aF0.5217435068280415
aF0.6974775815039657
aF0.09684861706786466
aF0.41548250212228577
aF0.19827545646778807
aF0.5787804418887229
aF0.4595552977977451
asba(iClonalgClassifier
Anticorpo
p87
(dp88
g3
F0.45696190807604115
sg4
(lp89
F0.4032591335740659
aF0.35330138078725287
aF0.8473796887611283
aF0.27281750331563953
aF0.21239407438378605
aF0.27903608548340825
aF0.3205365118404851
aF0.49780508315734495
aF0.6405435452497621
aF0.4407469581395504
asba(iClonalgClassifier
Anticorpo
p90
(dp91
g3
F0.4533465611566587
sg4
(lp92
F0.816107453728208
aF0.3957007849224332
aF0.4451991165070738
aF0.44817831404784725
aF0.5863555710363532
aF0.564838598250563
aF0.18570341928245027
aF0.08425885797547453
aF0.835624602890682
aF0.07941413372912313
asba(iClonalgClassifier
Anticorpo
p93
(dp94
g3
F0.4404375496589563
sg4
(lp95
F0.29460958142865795
aF0.19095847074382694
aF0.5649027071773361
aF0.5462225154063669
aF0.4378428405147571
aF0.39125463848276953
aF0.5215818535723041
aF0.3681590236530002
aF0.3530107451272694
aF0.3232547265135873
asba(iClonalgClassifier
Anticorpo
p96
(dp97
g3
F0.4401038442333328
sg4
(lp98
F0.23934795345951296
aF0.23977563787809894
aF0.2751933984153942
aF0.5456329761225321
aF0.34237728592115424
aF0.30270979351704036
aF0.025582169897210526
aF0.5096726725884092
aF0.5243241617442982
aF0.6054588444913269
asba(iClonalgClassifier
Anticorpo
p99
(dp100
g3
F0.4391797076149765
sg4
(lp101
F0.9590419425092737
aF0.49151003574071606
aF0.654152218949613
aF0.5338245483008618
aF0.47625767208858144
aF0.5727109754070145
aF0.025317916653423093
aF0.16667078889339942
aF0.7116200228580534
aF0.2138652221584293
asba(iClonalgClassifier
Anticorpo
p102
(dp103
g3
F0.43350402435250757
sg4
(lp104
F0.4010642390133889
aF0.24411554604795532
aF0.4752447183718372
aF0.4799456289881246
aF0.06447866584361735
aF0.4363901671357242
aF0.44528787445671114
aF0.38370442619136164
aF0.5931865122539027
aF0.13816448954948393
asba(iClonalgClassifier
Anticorpo
p105
(dp106
g3
F0.4291241557452274
sg4
(lp107
F0.4104990456410243
aF0.277774870910901
aF0.7051010962250868
aF0.34031095149883667
aF0.9480933545759929
aF0.2124254950886904
aF0.15307944530526896
aF0.1210859411968906
aF0.5079124535204094
aF0.3052517163997925
asba(iClonalgClassifier
Anticorpo
p108
(dp109
g3
F0.42905949460476694
sg4
(lp110
F0.8849105727605415
aF0.5692363634855536
aF0.17126056852182572
aF0.188324033934557
aF0.607721003528681
aF0.1583266977652366
aF0.13907365377760436
aF0.35975663277171643
aF0.5643585114388517
aF0.1457808224921733
asba(iClonalgClassifier
Anticorpo
p111
(dp112
g3
F0.428284968321586
sg4
(lp113
F0.4715739608914636
aF0.5644543836572263
aF0.9505870298480245
aF0.5326732802223081
aF0.44376353493080267
aF0.19742511597861107
aF0.33938425878919276
aF0.3202824131803831
aF0.6038829464832774
aF0.025908867268235276
asba(iClonalgClassifier
Anticorpo
p114
(dp115
g3
F0.4200990399700564
sg4
(lp116
F0.5169970933804087
aF0.38801406609245864
aF0.9587184902745995
aF0.40660973192003713
aF0.38151789111889634
aF0.5994952488797293
aF0.016221727716964354
aF0.4245565554834021
aF0.7292471524609238
aF0.11569512402107558
asba(iClonalgClassifier
Anticorpo
p117
(dp118
g3
F0.41751114834696995
sg4
(lp119
F0.7263246653468841
aF0.8215441284768653
aF0.6766762408388873
aF0.13851641677366583
aF0.5067337857852477
aF0.3774312551870698
aF0.27263798843638143
aF0.07300839887560238
aF0.8273420417829666
aF0.3581047395705677
asba(iClonalgClassifier
Anticorpo
p120
(dp121
g3
F0.4171379500882429
sg4
(lp122
F0.22511998770664043
aF0.4778970021342698
aF0.7522105509817373
aF0.3241413502465332
aF0.11537647233484727
aF0.46268109265785395
aF0.3318084981785342
aF0.5131896890571376
aF0.3783452649032591
aF0.4286698522361487
asba(iClonalgClassifier
Anticorpo
p123
(dp124
g3
F0.416811420402812
sg4
(lp125
F0.5101780291332018
aF0.33459063800447686
aF0.5629593727191724
aF0.5718282472030651
aF0.4145650015215361
aF0.6835792748843567
aF0.07442789901752966
aF0.6812235378084871
aF0.3342110896210422
aF0.17981213250505815
asba(iClonalgClassifier
Anticorpo
p126
(dp127
g3
F0.41633862134436955
sg4
(lp128
F0.602
aF0.817
aF0.634
aF0.289
aF0.32
aF0.509
aF0.551
aF0.266
aF0.658
aF0.146
asba(iClonalgClassifier
Anticorpo
p129
(dp130
g3
F0.41250569326654807
sg4
(lp131
F0.5108359022511318
aF0.6044890444878693
aF0.072224823768208
aF0.43335679901937824
aF0.6208121513975947
aF0.0763865954871761
aF0.37104751715293705
aF0.2913203868770224
aF0.3457561834510672
aF0.4339672957403634
asba(iClonalgClassifier
Anticorpo
p132
(dp133
g3
F0.4111671437432548
sg4
(lp134
F0.623
aF0.257
aF0.347
aF0.736
aF0.417
aF0.608
aF0.366
aF0.198
aF0.357
aF0.139
asba(iClonalgClassifier
Anticorpo
p135
(dp136
g3
F0.4110479674907172
sg4
(lp137
F0.5265849303467831
aF0.27520094342330986
aF0.5199689040356138
aF0.7517234122058747
aF0.3267132749762621
aF0.09226557251603608
aF0.2835830877517277
aF0.32429666799826706
aF0.22205003199213244
aF0.18134007244105985
asba(iClonalgClassifier
Anticorpo
p138
(dp139
g3
F0.39660849910973267
sg4
(lp140
F0.7979846757409923
aF0.9367277410189245
aF0.2788121735869575
aF0.5288456543541646
aF0.40110028229351263
aF0.1657223746460578
aF0.2775844531761792
aF0.18017470050378862
aF0.6253012727769373
aF0.24356372031741177
asba(iClonalgClassifier
Anticorpo
p141
(dp142
g3
F0.39126422501323627
sg4
(lp143
F0.19963811528186937
aF0.5976492388687434
aF0.5051380505485548
aF0.3394067334128462
aF0.8509901757697852
aF0.13915540315817865
aF0.34748769211496294
aF0.21467960867166175
aF0.25884361289379343
aF0.14643494016727004
asba(iClonalgClassifier
Anticorpo
p144
(dp145
g3
F0.3886575538166678
sg4
(lp146
F0.7807588667429547
aF0.2575322451257897
aF0.6974599896278983
aF0.5345947775002663
aF0.35523232297155644
aF0.37300284277385626
aF0.10263290392378258
aF0.6299047738825527
aF0.7608711947822355
aF0.4084429133803967
asba(iClonalgClassifier
Anticorpo
p147
(dp148
g3
F0.3767190554150156
sg4
(lp149
F0.49158583814128415
aF0.38023881757481875
aF0.36365709152700043
aF0.5237717688738951
aF0.347519719318456
aF0.5616623950334163
aF0.3179187408126944
aF0.7941886485844305
aF0.4989463138631742
aF0.1433706451370745
asba(iClonalgClassifier
Anticorpo
p150
(dp151
g3
F0.3744042698416415
sg4
(lp152
F0.13321807689779627
aF0.5666245137201763
aF0.2395398281600989
aF0.41441405231226525
aF0.24128434525102935
aF0.1806958845589261
aF0.12569258960512641
aF0.15120920247066827
aF0.07776339123123717
aF0.1868592915945603
asba(iClonalgClassifier
Anticorpo
p153
(dp154
g3
F0.3738364378077929
sg4
(lp155
F0.45720893831579573
aF0.7084593775713464
aF0.5324945388334755
aF0.46082517265180684
aF0.2022711696376208
aF0.45955959573119926
aF0.5922790507021585
aF0.14871752636457555
aF0.8104378724543733
aF0.414503291006719
asba(iClonalgClassifier
Anticorpo
p156
(dp157
g3
F0.3722520145386052
sg4
(lp158
F0.397319854424638
aF0.19284590978499627
aF0.42725726448149026
aF0.13466061562357332
aF0.9346187799794939
aF0.2607826753692702
aF0.13609791947087643
aF0.1834012427307382
aF0.3079429546906942
aF0.3600605121972564
asba(iClonalgClassifier
Anticorpo
p159
(dp160
g3
F0.37060364210524727
sg4
(lp161
F0.645
aF0.819
aF0.633
aF0.424
aF0.663
aF0.295
aF0.141
aF0.209
aF0.53
aF0.804
asba(iClonalgClassifier
Anticorpo
p162
(dp163
g3
F0.37008736219174526
sg4
(lp164
F0.41457626719378415
aF0.35886555022550537
aF0.4010827250021264
aF0.5263692753941517
aF0.4026261501895194
aF0.0888130142307987
aF0.5639353220570751
aF0.5193127733900906
aF0.5778056822232591
aF0.5262453016367181
asba(iClonalgClassifier
Anticorpo
p165
(dp166
g3
F0.3690709239793505
sg4
(lp167
F0.4636037281350865
aF0.5227147643050544
aF0.475297916720601
aF0.5073892508617338
aF0.39521427253946395
aF0.4079509406232554
aF0.6793688256791767
aF0.3859550079493204
aF0.6638537814899472
aF-0.002469565575372548
asba(iClonalgClassifier
Anticorpo
p168
(dp169
g3
F0.366274781201165
sg4
(lp170
F0.446436678149321
aF0.39997242487815865
aF0.7184916582672326
aF0.15147579978048048
aF0.6699082112774524
aF0.14539283454749627
aF0.5555770156666636
aF0.02909657478668754
aF0.6331376120363109
aF0.34179940844855683
asba(iClonalgClassifier
Anticorpo
p171
(dp172
g3
F0.36169506452442884
sg4
(lp173
F0.716653301908587
aF0.2005563319034538
aF0.6898232187265492
aF0.09088690499280606
aF0.24603757410804472
aF0.022404774445290238
aF0.012621552014273845
aF0.022701816047235215
aF0.4665863961664586
aF0.3390207686855097
asba(iClonalgClassifier
Anticorpo
p174
(dp175
g3
F0.35951757587933986
sg4
(lp176
F0.041
aF0.284
aF0.326
aF0.08
aF0.586
aF0.426
aF0.401
aF0.316
aF0.652
aF0.36
asba(iClonalgClassifier
Anticorpo
p177
(dp178
g3
F0.35899412791330504
sg4
(lp179
F0.7012465483596717
aF0.5013081627627374
aF0.3506953633005578
aF0.855962627510398
aF0.4090811226460109
aF0.5225341666788424
aF0.4348309778384629
aF0.17558294423167367
aF0.6278087937297799
aF0.4557913449428016
asba(iClonalgClassifier
Anticorpo
p180
(dp181
g3
F0.3552594923340143
sg4
(lp182
F0.6025770549186358
aF0.21918416816337957
aF0.11058092360708249
aF0.4492040080804077
aF0.41380772334108107
aF0.5630845121645955
aF0.019720033946255527
aF0.6205152809673301
aF0.6758135550509627
aF0.08419831149471202
asba(iClonalgClassifier
Anticorpo
p183
(dp184
g3
F0.3551067019355669
sg4
(lp185
F0.8164595136578344
aF0.36964944235183805
aF0.48175588644403183
aF0.5889227457491485
aF0.3956665734779141
aF0.1028910657780008
aF0.37747428521340237
aF0.63609270667247
aF0.5329841418684195
aF0.4458022215126775
asba(iClonalgClassifier
Anticorpo
p186
(dp187
g3
F0.35143845525277906
sg4
(lp188
F0.4613427875992573
aF0.495435593802185
aF0.7376118557130223
aF0.2921213371546235
aF0.13276139492878025
aF0.8906120676272947
aF0.06958667998563779
aF0.3542017046327189
aF0.5832191010617666
aF0.4728852061468184
asba(iClonalgClassifier
Anticorpo
p189
(dp190
g3
F0.3490050305530326
sg4
(lp191
F0.38791175045719745
aF0.15489889060618361
aF0.3740227677362902
aF0.7526853004565345
aF0.4199062540592736
aF0.4745620071135358
aF0.28773631859401116
aF0.5094353518921844
aF0.21693270771243006
aF0.37359710222597536
asba(iClonalgClassifier
Anticorpo
p192
(dp193
g3
F0.3473375081179709
sg4
(lp194
F0.5835147111711224
aF0.10293405288444303
aF0.43750998932530666
aF0.5565479021579439
aF0.3574165841842046
aF0.17444145484575885
aF0.29593748830350597
aF0.32348059572891613
aF0.5891948087927683
aF0.7416087247455018
asba(iClonalgClassifier
Anticorpo
p195
(dp196
g3
F0.3471261217289491
sg4
(lp197
F0.835
aF0.391
aF0.52
aF0.525
aF0.305
aF0.489
aF0.024
aF0.48
aF0.229
aF0.687
asba(iClonalgClassifier
Anticorpo
p198
(dp199
g3
F0.34655680678673223
sg4
(lp200
F0.468
aF0.211
aF0.707
aF0.523
aF0.59
aF0.402
aF0.304
aF0.459
aF0.998
aF0.162
asba(iClonalgClassifier
Anticorpo
p201
(dp202
g3
F0.3463915880891498
sg4
(lp203
F0.06921372281731841
aF0.584197238773142
aF0.7573525287846175
aF0.7876941038511707
aF0.4359440376079381
aF0.25884345466053876
aF0.3730065713625267
aF0.2246509112045914
aF0.43258600676818465
aF0.24312488861229978
asba(iClonalgClassifier
Anticorpo
p204
(dp205
g3
F0.3444556044328578
sg4
(lp206
F0.6471113004220905
aF0.5774731301969172
aF0.40316829044819646
aF0.5326597038055542
aF0.5294895822033511
aF0.06465615337711912
aF0.3444249593005645
aF0.24419465450116104
aF0.26837541058318587
aF0.7665738562089862
asba(iClonalgClassifier
Anticorpo
p207
(dp208
g3
F0.3385551051767094
sg4
(lp209
F0.6696924686361148
aF0.0988980864257861
aF0.37698903151556673
aF0.09478873489431792
aF0.8050311015824211
aF0.28599792412876596
aF0.20815781776785852
aF0.11745335380743976
aF0.57205984617348
aF0.5322107522171935
asba(iClonalgClassifier
Anticorpo
p210
(dp211
g3
F0.3374161428867959
sg4
(lp212
F0.6125161384713786
aF0.461555780783853
aF0.6641433965874766
aF0.15817301378170978
aF0.12949853072985906
aF0.16302713425430218
aF0.248530431640751
aF0.42460914002066674
aF0.6304663915254671
aF0.7642059763958743
asba(iClonalgClassifier
Anticorpo
p213
(dp214
g3
F0.33481134631472137
sg4
(lp215
F0.505
aF0.382
aF0.95
aF0.153
aF0.296
aF0.192
aF0.313
aF0.576
aF0.506
aF0.516
asba(iClonalgClassifier
Anticorpo
p216
(dp217
g3
F0.3344726010754441
sg4
(lp218
F0.8464314986216058
aF0.38481307001446285
aF0.7408852916365972
aF0.6334932491351052
aF0.3168178071421789
aF0.12358095528885421
aF0.2641427432644818
aF0.19720632200885155
aF0.8099504013619585
aF0.036493445940736606
asba(iClonalgClassifier
Anticorpo
p219
(dp220
g3
F0.33180344912646337
sg4
(lp221
F0.265
aF0.729
aF0.341
aF0.471
aF0.185
aF0.325
aF0.343
aF0.734
aF0.577
aF0.058
asba(iClonalgClassifier
Anticorpo
p222
(dp223
g3
F0.33117554677916466
sg4
(lp224
F0.8425454009712285
aF0.22079844342049698
aF0.23414599351832324
aF0.4369430181322166
aF0.13971826664806367
aF0.30753542482658947
aF0.2818422763832253
aF0.18342421017326718
aF0.2225693643646827
aF0.4593401485300498
asba(iClonalgClassifier
Anticorpo
p225
(dp226
g3
F0.3281689110782736
sg4
(lp227
F0.7838421723359211
aF0.4270261679304105
aF0.22246595156339014
aF0.08562089908543946
aF0.2678040004423571
aF0.12861775377125287
aF0.4047583722929066
aF0.5020263839618136
aF0.3101391581167286
aF0.18738180066195384
asba(iClonalgClassifier
Anticorpo
p228
(dp229
g3
F0.32552974000475743
sg4
(lp230
F0.3460942536559314
aF0.30135221393626305
aF0.9311786190163932
aF0.6700384434821945
aF0.08453455306053909
aF0.45525986318634476
aF0.2489467820947447
aF0.3850495171817213
aF0.4642888282950561
aF0.15109937787957253
asba(iClonalgClassifier
Anticorpo
p231
(dp232
g3
F0.3200246252447509
sg4
(lp233
F0.375
aF0.914
aF0.335
aF0.746
aF0.319
aF0.428
aF0.161
aF0.455
aF0.894
aF0.173
asba(iClonalgClassifier
Anticorpo
p234
(dp235
g3
F0.3199772721083146
sg4
(lp236
F0.7858936685299883
aF0.3713567925200541
aF0.40342491982294443
aF0.14045492961011657
aF0.5022426468132356
aF0.040190579211974935
aF0.018157719220828657
aF0.7029938199515489
aF0.3461953231378446
aF0.47803040363759264
asba(iClonalgClassifier
Anticorpo
p237
(dp238
g3
F0.31869550561760007
sg4
(lp239
F0.7
aF0.819
aF0.363
aF0.205
aF0.304
aF0.577
aF0.167
aF0.53
aF0.299
aF0.696
asba(iClonalgClassifier
Anticorpo
p240
(dp241
g3
F0.3158793466461215
sg4
(lp242
F0.934948689570567
aF0.22472499300730966
aF0.4018637954267548
aF0.6960740190787357
aF0.5135587428415374
aF0.08866664194900256
aF0.23150315731664742
aF0.4845495674190056
aF0.4234502162580937
aF0.24323205057313252
asba(iClonalgClassifier
Anticorpo
p243
(dp244
g3
F0.31468044088495883
sg4
(lp245
F0.6101741609612463
aF0.2443068081686959
aF0.3567668582948293
aF0.35134272958366175
aF0.18819485023389962
aF0.3675440259228094
aF0.27014688016091654
aF0.220606058659045
aF0.27373474799711406
aF0.835887134707281
asba(iClonalgClassifier
Anticorpo
p246
(dp247
g3
F0.3127469742770357
sg4
(lp248
F0.6450898479361462
aF0.5583644821476258
aF0.20613534816319495
aF0.7428256184867168
aF0.7415500657101155
aF0.4385272899206037
aF0.28389284710219004
aF0.2626291175145015
aF0.9263952888741338
aF0.12570869937088266
asba(iClonalgClassifier
Anticorpo
p249
(dp250
g3
F0.31146121198071086
sg4
(lp251
F0.2629374874661778
aF0.393849133982305
aF0.07593158637962777
aF0.33808739952825745
aF0.364011783878607
aF0.1270470465442168
aF0.47496991015401
aF0.10286106996834736
aF0.2560146892451238
aF0.05300362771246899
asba(iClonalgClassifier
Anticorpo
p252
(dp253
g3
F0.3090487585326493
sg4
(lp254
F0.18878328048103796
aF0.1753858403113219
aF0.4589578646696802
aF0.22776153458876863
aF0.4506137487939374
aF0.48195518336837817
aF0.11908601634134841
aF0.5394922952022054
aF0.7353421682368126
aF0.7481827606863979
asba(iClonalgClassifier
Anticorpo
p255
(dp256
g3
F0.307141666402114
sg4
(lp257
F0.196
aF0.314
aF0.166
aF0.818
aF0.311
aF0.335
aF0.266
aF0.091
aF0.804
aF0.375
asba(iClonalgClassifier
Anticorpo
p258
(dp259
g3
F0.30405758085896867
sg4
(lp260
F0.3444264285101083
aF0.43667119754481637
aF0.7201296100302507
aF0.174494308216651
aF-0.012963262153034276
aF0.4690746649693416
aF0.03191093696509202
aF0.6616312653924203
aF0.6917715782566776
aF0.06640374383355596
asba(iClonalgClassifier
Anticorpo
p261
(dp262
g3
F0.3035000184193291
sg4
(lp263
F0.763
aF0.226
aF0.948
aF0.127
aF0.27
aF0.378
aF0.184
aF0.092
aF0.768
aF0.121
asba(iClonalgClassifier
Anticorpo
p264
(dp265
g3
F0.300308107046221
sg4
(lp266
F0.526
aF0.085
aF0.392
aF0.131
aF0.255
aF0.336
aF0.524
aF0.482
aF0.494
aF0.561
asba(iClonalgClassifier
Anticorpo
p267
(dp268
g3
F0.29973653149597673
sg4
(lp269
F0.543500535995208
aF0.2607932427232381
aF0.01356520699450881
aF0.4571752980062669
aF0.5280472259151201
aF0.20524460881463716
aF0.549601695772644
aF0.4532548404703518
aF0.3748302026053461
aF0.21930753556768195
asba(iClonalgClassifier
Anticorpo
p270
(dp271
g3
F0.298117265320915
sg4
(lp272
F0.6867697764741557
aF0.09602573191813539
aF0.3698910713825678
aF0.30551904886986114
aF0.7508508850420255
aF0.021176453040488145
aF0.3304743324995272
aF0.5232820215792838
aF0.48380589997262075
aF0.11107002479049158
asba(iClonalgClassifier
Anticorpo
p273
(dp274
g3
F0.290318471853863
sg4
(lp275
F0.546
aF0.142
aF0.165
aF0.484
aF0.856
aF0.065
aF0.026
aF0.444
aF0.604
aF0.51
asba(iClonalgClassifier
Anticorpo
p276
(dp277
g3
F0.28674585758673604
sg4
(lp278
F0.399
aF0.604
aF0.64
aF0.295
aF0.517
aF0.54
aF0.066
aF0.603
aF0.945
aF0.764
asba(iClonalgClassifier
Anticorpo
p279
(dp280
g3
F0.2862637827600556
sg4
(lp281
F0.8944141575777759
aF0.04519667289799737
aF0.6537557018574348
aF0.13110256222417957
aF0.4809644484516402
aF0.10500796268931034
aF6.55185275031806e-05
aF0.4868648223647454
aF0.6425357193422909
aF0.2983196048464427
asba(iClonalgClassifier
Anticorpo
p282
(dp283
g3
F0.2859013703458154
sg4
(lp284
F0.4378332388317759
aF0.3718740758131858
aF0.9788604227893373
aF0.7298830601901292
aF0.5821186675292496
aF0.36524242918456984
aF0.4377785454183124
aF0.4518197496042616
aF0.7151229328670784
aF0.14793659938053352
asba(iClonalgClassifier
Anticorpo
p285
(dp286
g3
F0.2845730924942545
sg4
(lp287
F0.325241566170357
aF0.06489508273805364
aF0.5294825872579633
aF0.5238236156965107
aF0.6570307968219912
aF0.2483370768029309
aF0.2351672766603545
aF0.7539655166425174
aF0.3687526694267624
aF0.4532805001651372
asba(iClonalgClassifier
Anticorpo
p288
(dp289
g3
F0.2842569475054486
sg4
(lp290
F0.7770267096741604
aF0.5152697750409915
aF0.5754027247543075
aF0.1494160544455305
aF0.2564806070778627
aF0.07794085633277138
aF0.25666624968916757
aF0.6813562305966533
aF0.16064919084227586
aF0.45228478675048384
asba(iClonalgClassifier
Anticorpo
p291
(dp292
g3
F0.2827421691538613
sg4
(lp293
F0.088
aF0.429
aF0.858
aF0.351
aF0.459
aF0.03
aF0.487
aF0.47
aF0.35
aF0.239
asba(iClonalgClassifier
Anticorpo
p294
(dp295
g3
F0.2823390132481167
sg4
(lp296
F0.19303661730226385
aF0.05284474523974306
aF0.9571882313167325
aF0.35848180337463187
aF0.6981334629146679
aF0.2322619651861571
aF0.01479925191966819
aF0.30654236346701524
aF0.37603811088867384
aF0.3638005991630988
asba(iClonalgClassifier
Anticorpo
p297
(dp298
g3
F0.28169927341153117
sg4
(lp299
F0.573
aF0.627
aF0.056
aF0.709
aF0.218
aF0.412
aF0.026
aF0.661
aF0.796
aF0.22
asba(iClonalgClassifier
Anticorpo
p300
(dp301
g3
F0.27810197833065897
sg4
(lp302
F0.12250244962133376
aF0.37117700852557695
aF0.6121556617145804
aF0.3968706549415856
aF0.39721328262026645
aF0.0720527291039173
aF0.5281978572718409
aF0.22150670513947987
aF0.937754743976663
aF0.08766197582726615
asba.