(lp0
(iClonalgClassifier
Anticorpo
p1
(dp2
S'afinidade'
p3
F1.0002123133612582
sS'coordenadas'
p4
(lp5
F0.29325118305766645
aF0.6150260967359266
aF0.5280955300051013
aF0.28070664733062295
aF0.47085602259669856
aF0.5655203329948618
aF0.18987769483326747
aF0.4888114394345487
aF0.2734543165724655
aF0.2752971152605942
asba(iClonalgClassifier
Anticorpo
p6
(dp7
g3
F0.7468409425368077
sg4
(lp8
F0.4553352536412933
aF0.4771672583025139
aF0.2944226419448076
aF0.4701985522612381
aF0.39292282122511224
aF0.5161306145363824
aF0.21166285427749512
aF0.3071436366188894
aF0.18278327745988648
aF0.2374277167941872
asba(iClonalgClassifier
Anticorpo
p9
(dp10
g3
F0.7389669121827289
sg4
(lp11
F0.4987146159998754
aF0.8271573375218365
aF0.5937401651814656
aF0.25231531818870456
aF0.48670326084971194
aF0.33335887229601574
aF0.19767449008770718
aF0.35605420387620496
aF0.06440352013269336
aF0.5376074870391055
asba(iClonalgClassifier
Anticorpo
p12
(dp13
g3
F0.6716575612488246
sg4
(lp14
F0.5336797037765697
aF0.5259207820649597
aF0.5087936061901733
aF0.32151221649809103
aF0.3296465530617516
aF0.294563378821421
aF0.1735798041032277
aF0.3573961721623906
aF0.34423198193204824
aF0.6082810988703755
asba(iClonalgClassifier
Anticorpo
p15
(dp16
g3
F0.6693117587242879
sg4
(lp17
F0.2831711630430802
aF0.7846230588828425
aF0.5586410317997235
aF0.33768206272381557
aF0.16634471293243336
aF0.47429170379423324
aF0.07815597929541182
aF0.4946077934042196
aF0.4430193721126267
aF0.349269280236177
asba(iClonalgClassifier
Anticorpo
p18
(dp19
g3
F0.6536370224374265
sg4
(lp20
F0.30468370197197125
aF0.6047376933999049
aF0.45771603960048235
aF0.12405218043777273
aF0.31982896430046004
aF0.5042186938952097
aF0.11025470809696551
aF0.312428044717352
aF0.39324690768573756
aF0.33878654903428224
asba(iClonalgClassifier
Anticorpo
p21
(dp22
g3
F0.5662391536825304
sg4
(lp23
F0.39056651658449215
aF0.7617659197343226
aF0.44428787190851926
aF0.28949065818709413
aF0.5226347584227218
aF0.1950583400181403
aF0.32200616147259187
aF0.28173111094311976
aF0.5034502935386405
aF0.14705482812423862
asba(iClonalgClassifier
Anticorpo
p24
(dp25
g3
F0.5527037103133191
sg4
(lp26
F0.4342032539097991
aF0.5060467704684495
aF0.45987083432938836
aF0.30771675288943545
aF0.5241978874754969
aF0.19423230974734013
aF0.25494470916667983
aF0.15066113580837104
aF0.265583991858829
aF0.45101981525235046
asba(iClonalgClassifier
Anticorpo
p27
(dp28
g3
F0.5377992647596846
sg4
(lp29
F0.6225398128246344
aF0.7278079874112815
aF0.5393943280865717
aF0.21953444358325086
aF0.612328844448375
aF0.43150203876452536
aF0.2620324982204571
aF0.6568418196521032
aF0.4494186682496362
aF0.5292857844763708
asba(iClonalgClassifier
Anticorpo
p30
(dp31
g3
F0.5277647576582152
sg4
(lp32
F0.3467567966339271
aF0.6752819317203244
aF0.3183429291952986
aF0.12974885070555106
aF0.27261324918860136
aF0.364519144070899
aF0.5046105901211175
aF0.4565351355823335
aF0.32886214476282677
aF0.6100699395702287
asba(iClonalgClassifier
Anticorpo
p33
(dp34
g3
F0.5053763042029025
sg4
(lp35
F0.4140092524586561
aF0.49833921837083733
aF0.5121694616822959
aF0.025495911949249963
aF0.2564043264222038
aF0.5449005788099672
aF0.16751846752605823
aF0.4762833898739542
aF0.4605882875716947
aF0.19393160887345137
asba(iClonalgClassifier
Anticorpo
p36
(dp37
g3
F0.49993749556677247
sg4
(lp38
F0.6312715032277348
aF0.36361915533102995
aF0.3567221863762579
aF0.447522064836285
aF0.3866840911120573
aF0.42435433604550676
aF0.5063933287121747
aF0.5864297714939116
aF0.38202218810809774
aF0.2020821677811934
asba(iClonalgClassifier
Anticorpo
p39
(dp40
g3
F0.4881635589748781
sg4
(lp41
F0.3032706898274181
aF0.3830581266617788
aF0.4199658386751795
aF0.173154839472768
aF0.14872536800269232
aF0.3123605732762219
aF0.22594657321538594
aF0.6550951647176085
aF0.40829421648107184
aF0.3472369016323632
asba(iClonalgClassifier
Anticorpo
p42
(dp43
g3
F0.48181348731763757
sg4
(lp44
F0.21970890621189545
aF0.8550257217014271
aF0.6975513415360709
aF0.23701711259073643
aF0.34045192460844337
aF0.27100133767315926
aF0.1315968889444023
aF0.24644551379434557
aF0.4511856911691318
aF0.3015240876986142
asba(iClonalgClassifier
Anticorpo
p45
(dp46
g3
F0.47916738592491626
sg4
(lp47
F0.6860567873179623
aF0.6560674314695258
aF0.2557211484516311
aF0.6711799378663569
aF0.44068708727726913
aF0.42033076047760104
aF0.0991847551988827
aF0.6817671799668376
aF0.3089395435918924
aF0.3616428586907709
asba(iClonalgClassifier
Anticorpo
p48
(dp49
g3
F0.46672752836763237
sg4
(lp50
F0.4439441434876911
aF0.38842867365725414
aF0.43519277511080157
aF0.3259667459869668
aF0.40292744405430964
aF0.6675770357728017
aF0.14262469625043508
aF0.157942906257139
aF0.22299124888206456
aF0.2536774080349031
asba(iClonalgClassifier
Anticorpo
p51
(dp52
g3
F0.45084449356697964
sg4
(lp53
F0.37295838494580935
aF0.6501410022268591
aF0.41395015223622467
aF0.2057793518725054
aF0.3757482736825009
aF0.5973816052763741
aF0.2750772391954978
aF0.85932441882826
aF0.10521632544499551
aF0.019896921941765105
asba(iClonalgClassifier
Anticorpo
p54
(dp55
g3
F0.4442758669395898
sg4
(lp56
F0.2704752727915098
aF0.5092033004892523
aF0.44450241842420923
aF0.5143719384693328
aF0.233584448586482
aF0.3907972129787212
aF0.3538328880886609
aF0.03649652469829441
aF0.2424378941077364
aF0.2706094362764657
asba(iClonalgClassifier
Anticorpo
p57
(dp58
g3
F0.4154680753735045
sg4
(lp59
F0.11
aF0.828
aF0.323
aF0.202
aF0.447
aF0.647
aF0.059
aF0.513
aF0.414
aF0.208
asba(iClonalgClassifier
Anticorpo
p60
(dp61
g3
F0.4148196383110496
sg4
(lp62
F0.6940059457251965
aF0.40683734357971985
aF0.19729162317486598
aF0.302977194044732
aF0.1819095503278273
aF0.2716202472041559
aF0.3754019450312697
aF0.34581096656072385
aF0.4474772850781127
aF0.33569180510428887
asba(iClonalgClassifier
Anticorpo
p63
(dp64
g3
F0.40950264028489336
sg4
(lp65
F0.5689868472332243
aF0.5471382251813246
aF0.4314654835036199
aF0.20372902365359574
aF0.09524857989923109
aF0.4641285728035048
aF0.07522665462538465
aF0.25747988959117357
aF0.5548203064025908
aF0.44661986419690797
asba(iClonalgClassifier
Anticorpo
p66
(dp67
g3
F0.4053463707791615
sg4
(lp68
F0.5577273136786931
aF0.3894448754224285
aF0.5972849909156827
aF0.5244534135320627
aF0.2059939933497992
aF0.657553218104419
aF0.256609942155713
aF0.6095668927401369
aF0.3414855718486882
aF0.6013167907651489
asba(iClonalgClassifier
Anticorpo
p69
(dp70
g3
F0.39486180891907086
sg4
(lp71
F0.08502155088175495
aF0.6752318740929574
aF0.5997674127320042
aF0.5903880236304462
aF0.0927128465840453
aF0.3242489157728377
aF0.06806694771224682
aF0.5123015165326981
aF0.39623775283163654
aF0.4180474434942273
asba(iClonalgClassifier
Anticorpo
p72
(dp73
g3
F0.39177378477019315
sg4
(lp74
F0.6187937047428796
aF0.3491342237698346
aF0.493586919491209
aF0.06049191010469356
aF0.25495855368093084
aF0.13930310548962802
aF0.22505931971250445
aF0.3843420163435248
aF0.37627637496783795
aF0.13273580596266304
asba(iClonalgClassifier
Anticorpo
p75
(dp76
g3
F0.3864526003741973
sg4
(lp77
F0.6440543822189911
aF0.6838569287507266
aF0.8382389139329343
aF0.5054879693288375
aF0.6154970120062156
aF0.2658249345530785
aF0.28927792289173143
aF0.5681320275099876
aF0.5319243326607954
aF0.39635088791740153
asba(iClonalgClassifier
Anticorpo
p78
(dp79
g3
F0.38352876742194636
sg4
(lp80
F0.19286058695375122
aF0.41138961310429883
aF0.581063476369531
aF0.3575891007889921
aF0.26025053982043245
aF0.11679259651431327
aF0.34594722200575506
aF0.4879293513213974
aF0.5769780495895684
aF0.32109383356289567
asba(iClonalgClassifier
Anticorpo
p81
(dp82
g3
F0.3822335455539175
sg4
(lp83
F0.794
aF0.798
aF0.305
aF0.532
aF0.686
aF0.558
aF0.172
aF0.563
aF0.282
aF0.074
asba(iClonalgClassifier
Anticorpo
p84
(dp85
g3
F0.38147810345707106
sg4
(lp86
F0.44374523477628125
aF0.49863968870840897
aF0.5603644280063899
aF0.490743559637296
aF0.661200722272591
aF0.6869855034854259
aF0.4870010674496631
aF0.3969145000575469
aF0.518209342965047
aF0.3525657589552996
asba(iClonalgClassifier
Anticorpo
p87
(dp88
g3
F0.374626999164477
sg4
(lp89
F0.6162491526544687
aF0.639138421178057
aF0.872251981266144
aF0.6720369287646375
aF0.5463638832695505
aF0.45827749333800016
aF0.5086832727198911
aF0.44422917498205866
aF0.18108697742336938
aF0.18056831041697136
asba(iClonalgClassifier
Anticorpo
p90
(dp91
g3
F0.3674936217053114
sg4
(lp92
F0.3956854879173856
aF0.23229669972902695
aF0.3690166608743117
aF0.15542662460931544
aF0.3097067556636409
aF0.4071366430737548
aF0.022681031111335074
aF0.4787270214625761
aF0.46508370178142305
aF0.4063928012361434
asba(iClonalgClassifier
Anticorpo
p93
(dp94
g3
F0.35400265704624856
sg4
(lp95
F0.3755884040058141
aF0.46663920511530044
aF0.758942699312749
aF0.4898220091866847
aF0.2635355478705861
aF0.6931675424090343
aF0.42755006991074085
aF0.5453925927634307
aF0.5605801953683277
aF0.165316132596265
asba(iClonalgClassifier
Anticorpo
p96
(dp97
g3
F0.35193619215949307
sg4
(lp98
F0.338
aF0.766
aF0.891
aF0.049
aF0.403
aF0.434
aF0.367
aF0.354
aF0.469
aF0.072
asba(iClonalgClassifier
Anticorpo
p99
(dp100
g3
F0.3377463705866792
sg4
(lp101
F0.2234418253646142
aF0.6250681726300403
aF0.38541933073723345
aF0.5996237161390705
aF0.06102733097497949
aF0.6239403630202941
aF0.1344341946006553
aF0.3271627856100304
aF0.5784643079867282
aF0.2257677886708052
asba(iClonalgClassifier
Anticorpo
p102
(dp103
g3
F0.3375289774756167
sg4
(lp104
F0.88
aF0.444
aF0.657
aF0.484
aF0.555
aF0.507
aF0.115
aF0.367
aF0.4
aF0.511
asba(iClonalgClassifier
Anticorpo
p105
(dp106
g3
F0.3358140524323932
sg4
(lp107
F0.647
aF0.713
aF0.349
aF0.124
aF0.57
aF0.569
aF0.041
aF0.923
aF0.278
aF0.479
asba(iClonalgClassifier
Anticorpo
p108
(dp109
g3
F0.3247374854584378
sg4
(lp110
F0.443
aF0.621
aF0.701
aF0.235
aF0.188
aF0.627
aF0.084
aF0.315
aF0.588
aF0.655
asba(iClonalgClassifier
Anticorpo
p111
(dp112
g3
F0.3211352946290184
sg4
(lp113
F0.7134643130183445
aF0.5927596334162418
aF0.2527240393119603
aF0.25175151218736774
aF0.246162545364341
aF0.13890721578027362
aF0.3969474151754714
aF0.49042429238680346
aF0.21277567259333036
aF0.8143426473666889
asba(iClonalgClassifier
Anticorpo
p114
(dp115
g3
F0.3181665225446054
sg4
(lp116
F0.686
aF0.974
aF0.482
aF0.701
aF0.193
aF0.051
aF0.457
aF0.451
aF0.455
aF0.378
asba(iClonalgClassifier
Anticorpo
p117
(dp118
g3
F0.31659729290501537
sg4
(lp119
F-0.0007539615034796533
aF0.8663365586158371
aF0.7142896231876741
aF0.2593636432782431
aF0.09517636921457062
aF0.3182087530354647
aF0.07627696650606128
aF0.4074290550409282
aF0.46159376644110994
aF0.39583884749924997
asba(iClonalgClassifier
Anticorpo
p120
(dp121
g3
F0.316025652889395
sg4
(lp122
F0.7349641275169149
aF0.9058879837701986
aF0.6836346333739014
aF0.478750082143616
aF0.732920801609424
aF0.38570101432991133
aF0.19472261573059702
aF0.12363814097837017
aF0.06257268376644003
aF0.16017143932460884
asba(iClonalgClassifier
Anticorpo
p123
(dp124
g3
F0.3127991286721222
sg4
(lp125
F0.30017199919455356
aF0.6037508940171075
aF0.37931402528978947
aF0.32843048940487213
aF0.044399472307018725
aF0.6233706042848876
aF0.16069706368660294
aF0.00864114650376262
aF0.14662357860341788
aF0.06151355597973704
asba(iClonalgClassifier
Anticorpo
p126
(dp127
g3
F0.31266837060186925
sg4
(lp128
F0.6254487720538288
aF0.42960263009281796
aF0.9063989857892315
aF0.15724354029680224
aF0.6328231754110285
aF0.3112625880072258
aF0.3268325802999109
aF0.45836309209729403
aF0.5056341089252179
aF0.3799494006017114
asba(iClonalgClassifier
Anticorpo
p129
(dp130
g3
F0.312467084174056
sg4
(lp131
F0.5179439215018579
aF0.23846353709177578
aF0.9374210786735914
aF0.4506831006465265
aF0.18901086847074713
aF0.28516284703265654
aF0.25044536731693795
aF0.5687210582078097
aF0.1881810431721774
aF0.21216277535443911
asba(iClonalgClassifier
Anticorpo
p132
(dp133
g3
F0.3114345212899538
sg4
(lp134
F0.45343543638229517
aF0.6669104583077543
aF0.22562053748786712
aF0.6448378993386245
aF0.39333804472948053
aF0.4626065251098747
aF0.3994456214997568
aF-0.03411698381351909
aF0.44772376207756037
aF0.4123761944082767
asba(iClonalgClassifier
Anticorpo
p135
(dp136
g3
F0.30817420415568364
sg4
(lp137
F0.47803377722371143
aF0.7499843580318882
aF0.8125996754125783
aF0.11445462977538012
aF0.18213958215509624
aF0.5793826559340669
aF0.05088847954268542
aF0.8750826374930992
aF0.09164674241412304
aF0.0863214020989242
asba(iClonalgClassifier
Anticorpo
p138
(dp139
g3
F0.3053656704588772
sg4
(lp140
F0.7019995887056348
aF0.6542410025088031
aF0.4067190999970614
aF0.24037759271430553
aF0.8362922054974448
aF0.266252968477364
aF0.39192708164456386
aF0.5034930981652825
aF0.6200461531332494
aF0.19565445995033576
asba(iClonalgClassifier
Anticorpo
p141
(dp142
g3
F0.30532676607748455
sg4
(lp143
F0.6289559098629187
aF0.44691849543328327
aF0.5966114344127575
aF0.709690659800316
aF0.2977767826244312
aF0.07818724587417059
aF0.4824795303842639
aF0.2632790010344993
aF0.3876160926280661
aF0.5396761257012805
asba(iClonalgClassifier
Anticorpo
p144
(dp145
g3
F0.2939274529505872
sg4
(lp146
F0.26249982444746617
aF0.8410128738017231
aF0.7128459978822558
aF0.8598277109324577
aF0.6704339066160013
aF0.5495546746625009
aF0.17222042340026136
aF0.39528740636144427
aF0.2957326792512937
aF0.4545106844897174
asba(iClonalgClassifier
Anticorpo
p147
(dp148
g3
F0.2911442375422095
sg4
(lp149
F0.5155139620476051
aF0.447667344389036
aF0.30937980531689135
aF0.21993526347034092
aF0.7936531458455947
aF0.783702395905219
aF0.009382557625430488
aF0.6106988852877271
aF0.23732806503968948
aF0.36681385883501255
asba(iClonalgClassifier
Anticorpo
p150
(dp151
g3
F0.2881024397250499
sg4
(lp152
F0.45307457453382133
aF0.24504269855839841
aF0.9310238388381233
aF0.37465653330220927
aF0.5415566848076261
aF0.39011242594930096
aF0.08750625914337515
aF0.2842937141339633
aF0.2694510748742767
aF0.15395880717185917
asba(iClonalgClassifier
Anticorpo
p153
(dp154
g3
F0.28560689288199476
sg4
(lp155
F0.2539801981685755
aF0.6384263585238114
aF0.30813175430296086
aF0.15413430714987997
aF0.039636615912249415
aF0.6127310058338561
aF0.44245457367602703
aF0.23857039417510423
aF0.3576900003426799
aF0.7334404068794287
asba(iClonalgClassifier
Anticorpo
p156
(dp157
g3
F0.27725153615174675
sg4
(lp158
F0.643
aF0.704
aF0.499
aF0.553
aF0.146
aF0.841
aF0.67
aF0.63
aF0.477
aF0.315
asba(iClonalgClassifier
Anticorpo
p159
(dp160
g3
F0.27050798138275556
sg4
(lp161
F0.8094074389441867
aF0.713844048000631
aF0.6170341171723074
aF0.2978026845549417
aF0.3892624988713905
aF0.968400439715565
aF0.30352062569157995
aF0.23127043977687634
aF0.42447279921001824
aF0.2623277231409987
asba(iClonalgClassifier
Anticorpo
p162
(dp163
g3
F0.2679042561628973
sg4
(lp164
F0.8429219399968876
aF0.8906523947961577
aF0.905937170527819
aF0.6300142991731642
aF0.24406310890549637
aF0.36264580872870733
aF0.2753925912816825
aF0.26413027908302644
aF-0.0014513092480981753
aF0.10458390065011698
asba(iClonalgClassifier
Anticorpo
p165
(dp166
g3
F0.26721937859262923
sg4
(lp167
F0.28476752098990166
aF0.863413439262423
aF0.40271393519636206
aF0.7117938867286421
aF0.33148018671074747
aF0.5692879198253677
aF0.21877974297774075
aF0.866686400063718
aF0.24868366725381114
aF0.7794926597664674
asba(iClonalgClassifier
Anticorpo
p168
(dp169
g3
F0.2656139143599634
sg4
(lp170
F0.22097692676402464
aF0.7852601278707014
aF0.8877473772257384
aF0.825176259036795
aF0.3829809250566211
aF0.5263901337478836
aF0.333380646361868
aF0.2622014748459137
aF0.47029028353955005
aF0.39576739748415457
asba(iClonalgClassifier
Anticorpo
p171
(dp172
g3
F0.2656042448537221
sg4
(lp173
F0.351
aF0.812
aF0.458
aF0.184
aF0.164
aF0.056
aF0.751
aF0.69
aF0.553
aF0.232
asba(iClonalgClassifier
Anticorpo
p174
(dp175
g3
F0.26512229971432877
sg4
(lp176
F0.809
aF0.382
aF0.324
aF0.405
aF0.575
aF0.167
aF0.69
aF0.746
aF0.16
aF0.235
asba(iClonalgClassifier
Anticorpo
p177
(dp178
g3
F0.26234326886381654
sg4
(lp179
F0.831
aF0.706
aF0.795
aF0.508
aF0.453
aF0.534
aF0.425
aF0.871
aF0.56
aF0.45
asba(iClonalgClassifier
Anticorpo
p180
(dp181
g3
F0.261553284777274
sg4
(lp182
F0.412
aF0.377
aF0.138
aF0.489
aF0.578
aF0.176
aF0.165
aF0.399
aF0.162
aF0.815
asba(iClonalgClassifier
Anticorpo
p183
(dp184
g3
F0.2560126811981966
sg4
(lp185
F0.224
aF0.94
aF0.863
aF0.539
aF0.334
aF0.669
aF0.638
aF0.364
aF0.438
aF0.083
asba(iClonalgClassifier
Anticorpo
p186
(dp187
g3
F0.2555421465700635
sg4
(lp188
F0.6697873897145326
aF0.4548453278103701
aF0.266318809213625
aF0.347845646064307
aF0.2823523855592047
aF0.5052810543574872
aF0.062408838260435154
aF0.026808568717822962
aF0.5942480708018159
aF0.058695796237495004
asba(iClonalgClassifier
Anticorpo
p189
(dp190
g3
F0.25487528263845005
sg4
(lp191
F0.555072688630548
aF0.3690618098549209
aF0.45269687689853505
aF0.687866629406104
aF0.04360605496242955
aF0.5068286193709518
aF0.022020263422395256
aF0.6671223853027214
aF0.639521458170772
aF0.36472047772384947
asba(iClonalgClassifier
Anticorpo
p192
(dp193
g3
F0.2521701426050234
sg4
(lp194
F0.7731701638945297
aF0.13279942701839145
aF0.6228077558090807
aF0.470001775831642
aF0.09776451623184337
aF0.4249280073988373
aF0.20888306838941456
aF0.17365226853952515
aF0.1542159706194208
aF0.37714033436360067
asba(iClonalgClassifier
Anticorpo
p195
(dp196
g3
F0.2502421727610171
sg4
(lp197
F0.2826643064558532
aF0.6767901119318209
aF0.8629845134570039
aF0.3719960355843568
aF0.42781811600291747
aF0.026263952562451606
aF0.6292369299785499
aF0.8268201400926921
aF0.3765666609555183
aF0.09971268237588035
asba(iClonalgClassifier
Anticorpo
p198
(dp199
g3
F0.24944363838103983
sg4
(lp200
F0.18875142251561322
aF0.7828801032815179
aF0.6350207998771801
aF0.7394375249295557
aF0.7357518217029093
aF0.45522562534537603
aF0.3800871743604945
aF0.7574853371234082
aF0.6052430389967336
aF0.2793678559279307
asba(iClonalgClassifier
Anticorpo
p201
(dp202
g3
F0.24817387177868935
sg4
(lp203
F0.4779654026197949
aF0.6736060789946606
aF0.4047690536807512
aF0.9097644664776868
aF0.8735552471460096
aF0.5646212079158376
aF0.42052283906053806
aF0.37632358539933275
aF0.23328965002500796
aF0.361025227669399
asba(iClonalgClassifier
Anticorpo
p204
(dp205
g3
F0.24595850503746836
sg4
(lp206
F0.557
aF0.608
aF0.561
aF0.646
aF0.617
aF0.22
aF0.334
aF0.779
aF0.006
aF0.865
asba(iClonalgClassifier
Anticorpo
p207
(dp208
g3
F0.2458029819632899
sg4
(lp209
F0.40311542329610167
aF0.46762110707669935
aF0.6206494754517167
aF0.9162370372009943
aF0.4122294714823262
aF0.7961611362137662
aF0.16906907082326128
aF0.47410837413949375
aF-0.028163461249615687
aF0.45351433155443777
asba(iClonalgClassifier
Anticorpo
p210
(dp211
g3
F0.2453728570199095
sg4
(lp212
F0.25367831410404085
aF0.7921442534664762
aF0.4907605179670939
aF0.650458592373665
aF0.46640053912579166
aF0.25820283870198296
aF0.05767705566470166
aF0.8272437746134796
aF0.637799920164157
aF0.6829028416946697
asba(iClonalgClassifier
Anticorpo
p213
(dp214
g3
F0.24218239428282717
sg4
(lp215
F0.3856504032742396
aF0.6715902828210656
aF0.6049922403678075
aF0.7597122397858723
aF0.2260845159097648
aF0.12720311884261526
aF0.5539512723553884
aF0.3227731177331711
aF0.6181405803562241
aF0.6499086262425637
asba(iClonalgClassifier
Anticorpo
p216
(dp217
g3
F0.23753280641687083
sg4
(lp218
F0.8328155113621621
aF0.7983978624132594
aF0.45666485209068486
aF0.3687638785866073
aF0.5423048190615399
aF0.2879700088907073
aF0.21001784155520073
aF0.384563625550362
aF0.640103806538462
aF0.8454107283950869
asba(iClonalgClassifier
Anticorpo
p219
(dp220
g3
F0.2373928861968632
sg4
(lp221
F0.36965602699302597
aF0.565857402687381
aF0.5942107891522491
aF0.3066070596491367
aF0.4244393035391942
aF0.2603994655586895
aF0.13257064207158376
aF0.7281314108220309
aF0.7220504816918687
aF0.8318141786667097
asba(iClonalgClassifier
Anticorpo
p222
(dp223
g3
F0.2371373442194735
sg4
(lp224
F0.813
aF0.722
aF0.842
aF0.675
aF0.035
aF0.4
aF0.575
aF0.149
aF0.255
aF0.354
asba(iClonalgClassifier
Anticorpo
p225
(dp226
g3
F0.23539450563413783
sg4
(lp227
F0.1399317322698351
aF0.6285436726996212
aF0.24800241669848597
aF0.2549230088372142
aF0.13567435144603615
aF0.09523464567344818
aF0.3922121531977588
aF0.31154246202363955
aF0.7490204705433033
aF0.1013619516663104
asba(iClonalgClassifier
Anticorpo
p228
(dp229
g3
F0.23347925856667107
sg4
(lp230
F0.3304684220135877
aF0.3846984283918837
aF0.5692631419463396
aF0.4067779985102239
aF0.9400155126030308
aF0.10921467563592016
aF-0.003931776292246247
aF0.5164484241236574
aF0.453806775945571
aF0.21868708883503915
asba(iClonalgClassifier
Anticorpo
p231
(dp232
g3
F0.2326155401349511
sg4
(lp233
F0.7624750845075381
aF0.13420872160853772
aF0.6950502048158191
aF0.3584592842913044
aF0.3519220642265111
aF0.029778606379679363
aF0.3055286191660562
aF0.3267070367331557
aF0.346301372442151
aF0.5401427309170802
asba(iClonalgClassifier
Anticorpo
p234
(dp235
g3
F0.2318870278607637
sg4
(lp236
F0.7099594951099698
aF0.9180082184366496
aF0.5719750263104025
aF0.5959823105412949
aF0.6540109660182811
aF0.024973080588609205
aF0.1760050829035889
aF0.12301827868325374
aF0.5179872804093666
aF0.05800228109453113
asba(iClonalgClassifier
Anticorpo
p237
(dp238
g3
F0.23071855470926253
sg4
(lp239
F0.6273350584166346
aF0.3951561478342512
aF0.7521086937840942
aF0.44087689615621156
aF0.15187960190213962
aF0.40261297346602276
aF0.08482080547629499
aF0.5058454408255104
aF0.6787864922753647
aF0.7496243009116612
asba(iClonalgClassifier
Anticorpo
p240
(dp241
g3
F0.2305312539112004
sg4
(lp242
F0.919
aF0.909
aF0.36
aF0.291
aF0.267
aF0.064
aF0.576
aF0.061
aF0.184
aF0.503
asba(iClonalgClassifier
Anticorpo
p243
(dp244
g3
F0.22793307235145124
sg4
(lp245
F0.351
aF0.695
aF0.433
aF0.721
aF0.194
aF0.109
aF0.083
aF0.29
aF0.657
aF0.732
asba(iClonalgClassifier
Anticorpo
p246
(dp247
g3
F0.22747065257226293
sg4
(lp248
F0.39358719900503947
aF0.6057769530206882
aF0.8310012375254369
aF0.159362345654346
aF0.03330710637679398
aF0.07817674323163129
aF0.13034664762756487
aF0.1737377316396514
aF0.6311057852961383
aF0.12634740618986615
asba(iClonalgClassifier
Anticorpo
p249
(dp250
g3
F0.2255947338716224
sg4
(lp251
F0.769
aF0.889
aF0.445
aF0.547
aF0.176
aF0.702
aF0.648
aF0.846
aF0.356
aF0.65
asba(iClonalgClassifier
Anticorpo
p252
(dp253
g3
F0.22371274214331854
sg4
(lp254
F0.26460839980100237
aF0.8303884399722359
aF0.5006017117114687
aF0.46004288691011413
aF0.6763658684057103
aF0.373282074736071
aF0.01808905840814718
aF0.7368110038220389
aF0.8534209322191646
aF0.19890795335841197
asba(iClonalgClassifier
Anticorpo
p255
(dp256
g3
F0.2220913138559306
sg4
(lp257
F0.7576369129326359
aF0.5528045950201078
aF0.6496873053201668
aF0.3317622260589418
aF0.4642562701451653
aF0.08806865190533358
aF0.027039639640018723
aF0.8296793674805669
aF0.30628878171258006
aF0.8459607221938361
asba(iClonalgClassifier
Anticorpo
p258
(dp259
g3
F0.22045143564755318
sg4
(lp260
F0.04063704126186998
aF0.888025153711306
aF0.5442484051941316
aF0.6008937106940833
aF0.20973962189643366
aF0.485062085670232
aF0.6621346952251714
aF0.0013614062983795458
aF0.2629204914884648
aF0.4949224391373273
asba(iClonalgClassifier
Anticorpo
p261
(dp262
g3
F0.21778316164030653
sg4
(lp263
F0.6373841472993009
aF0.2838313713598128
aF0.5091502397590255
aF0.8116837917036295
aF0.27271682484281334
aF0.4865068602135738
aF0.566169391186979
aF0.22563653729573088
aF0.5757600929407468
aF0.44442524715868925
asba(iClonalgClassifier
Anticorpo
p264
(dp265
g3
F0.21565029046589282
sg4
(lp266
F0.893
aF0.102
aF0.453
aF0.538
aF0.651
aF0.433
aF0.225
aF0.408
aF0.413
aF0.477
asba(iClonalgClassifier
Anticorpo
p267
(dp268
g3
F0.21554055099667285
sg4
(lp269
F0.8843011656655766
aF0.3746340437444605
aF0.8146896113743802
aF0.1418655700855134
aF0.3218061872726944
aF0.31094055543807486
aF-0.004033163923413255
aF0.6760962335231717
aF0.5591651015537789
aF0.07351724130116966
asba(iClonalgClassifier
Anticorpo
p270
(dp271
g3
F0.2151775148113151
sg4
(lp272
F0.9613074625226588
aF0.414002135147364
aF0.12397315224789983
aF0.4345884699067356
aF0.4408881691959411
aF0.6482769086907139
aF-0.04333695669604609
aF0.3004262393588758
aF0.408322406948181
aF0.5073080774189456
asba(iClonalgClassifier
Anticorpo
p273
(dp274
g3
F0.21431597184709048
sg4
(lp275
F0.275
aF0.863
aF0.814
aF0.448
aF0.923
aF0.436
aF0.168
aF0.164
aF0.364
aF0.646
asba(iClonalgClassifier
Anticorpo
p276
(dp277
g3
F0.2140856806518206
sg4
(lp278
F0.7709332134624071
aF0.040212203584829395
aF0.6592251093086764
aF0.1890525191763749
aF0.25292974204664453
aF0.4689912981821563
aF0.35155179591364916
aF0.3314967082878812
aF0.41306201027099704
aF0.050243625159014794
asba(iClonalgClassifier
Anticorpo
p279
(dp280
g3
F0.21369467179735074
sg4
(lp281
F0.6323254560669259
aF0.33000773882399687
aF0.5888392381216752
aF0.7979217377740835
aF0.7604365232029306
aF0.46926287102807046
aF-0.012263635194019476
aF0.30913054615849334
aF0.2469487580846817
aF0.6177760344684302
asba(iClonalgClassifier
Anticorpo
p282
(dp283
g3
F0.2106734768257949
sg4
(lp284
F0.2994802810410682
aF0.3088053517046863
aF0.6820619288159689
aF0.5838585509393126
aF0.7836822323923796
aF0.25499369035306774
aF0.16687186968599055
aF0.3311618754120205
aF0.19789524951968104
aF0.8131483510425297
asba(iClonalgClassifier
Anticorpo
p285
(dp286
g3
F0.21065536746910474
sg4
(lp287
F0.226
aF0.266
aF0.81
aF0.38
aF0.02
aF0.174
aF0.5
aF0.788
aF0.321
aF0.595
asba(iClonalgClassifier
Anticorpo
p288
(dp289
g3
F0.20879194595772288
sg4
(lp290
F0.426
aF0.547
aF0.7
aF0.465
aF0.748
aF0.366
aF0.053
aF0.484
aF0.903
aF0.388
asba(iClonalgClassifier
Anticorpo
p291
(dp292
g3
F0.2072344397263101
sg4
(lp293
F0.275
aF0.551
aF0.977
aF0.69
aF0.138
aF0.093
aF0.382
aF0.727
aF0.58
aF0.242
asba(iClonalgClassifier
Anticorpo
p294
(dp295
g3
F0.20718142785022098
sg4
(lp296
F0.31870610097859176
aF0.8676910251798313
aF0.4450809495369337
aF0.15761252940026518
aF0.7035506369592621
aF0.6925424741244722
aF0.7987052509622511
aF0.06786507266810102
aF0.1118093974070663
aF0.17095396904335172
asba(iClonalgClassifier
Anticorpo
p297
(dp298
g3
F0.2069309410732821
sg4
(lp299
F0.8400476708279362
aF0.5356071575316855
aF0.7920963985467682
aF0.5210242577933739
aF0.2926565790000456
aF0.30504304241176783
aF0.5401370307398478
aF0.31306454879024376
aF0.785362840052575
aF0.4911452057801753
asba(iClonalgClassifier
Anticorpo
p300
(dp301
g3
F0.2059977847494088
sg4
(lp302
F0.27
aF0.295
aF0.666
aF0.319
aF0.516
aF0.649
aF0.903
aF0.321
aF0.226
aF0.461
asba(iClonalgClassifier
Anticorpo
p303
(dp304
g3
F0.2058945313871852
sg4
(lp305
F0.339
aF0.503
aF0.873
aF0.018
aF0.214
aF0.974
aF0.046
aF0.665
aF0.269
aF0.231
asba(iClonalgClassifier
Anticorpo
p306
(dp307
g3
F0.20269314899550922
sg4
(lp308
F0.156
aF0.804
aF0.301
aF0.865
aF0.75
aF0.105
aF0.561
aF0.629
aF0.074
aF0.495
asba(iClonalgClassifier
Anticorpo
p309
(dp310
g3
F0.20231904739063875
sg4
(lp311
F0.825
aF0.311
aF0.31
aF0.407
aF0.165
aF0.272
aF0.44
aF0.992
aF0.034
aF0.624
asba(iClonalgClassifier
Anticorpo
p312
(dp313
g3
F0.20198516305745015
sg4
(lp314
F0.7919191058904826
aF0.6727182675554597
aF0.4550683704683622
aF0.3177814197765893
aF0.5570980250051513
aF0.25844790706810983
aF0.9893023442437008
aF0.28970472956717064
aF0.054371071207208486
aF0.1000609094372977
asba(iClonalgClassifier
Anticorpo
p315
(dp316
g3
F0.19802688689807418
sg4
(lp317
F0.6842064098167521
aF0.9955879533190576
aF0.5138387789840122
aF0.7594566023898204
aF0.7083149029259228
aF0.36759348432631656
aF0.3130454004994979
aF0.49598650001170325
aF0.7076010564538835
aF0.6782130577230067
asba(iClonalgClassifier
Anticorpo
p318
(dp319
g3
F0.19348317033886694
sg4
(lp320
F0.7052273465911534
aF0.19889250065450403
aF0.7789024311418674
aF0.726702368446994
aF0.15613550483077226
aF0.24929664910353325
aF0.17021278424031305
aF0.16509307694635555
aF0.11754872353960437
aF0.6219479326841887
asba(iClonalgClassifier
Anticorpo
p321
(dp322
g3
F0.1934052876169072
sg4
(lp323
F0.7177469730046945
aF0.2747198941366615
aF0.10203956447117632
aF0.0264736841957431
aF0.1910476988076
aF0.2986832418809126
aF0.2207743757743136
aF0.08265554871636992
aF0.07382433293682647
aF0.6424911087200443
asba(iClonalgClassifier
Anticorpo
p324
(dp325
g3
F0.19199920239048046
sg4
(lp326
F0.8603547839718495
aF0.6503099349431004
aF0.20385772002130617
aF0.481360499473447
aF0.23362744673736263
aF0.22709901656303141
aF0.5525444586595399
aF0.9302962281305581
aF0.655855229214347
aF0.07308487682581767
asba(iClonalgClassifier
Anticorpo
p327
(dp328
g3
F0.1908576945392521
sg4
(lp329
F0.21775061099911922
aF0.3537124283231814
aF0.9502237813571652
aF0.6451964157557208
aF0.7068876234349567
aF0.2290111785819557
aF0.40312716727233144
aF0.4317905385601952
aF0.6354973666541675
aF0.2999201665657899
asba(iClonalgClassifier
Anticorpo
p330
(dp331
g3
F0.19062324109646053
sg4
(lp332
F0.9441989856293816
aF0.7195822181802048
aF0.04504067476048336
aF0.9299111126232651
aF0.22283246354638642
aF0.31993136985167014
aF0.1282150364606732
aF0.5170349769983211
aF0.09069423203551842
aF0.45403985295402516
asba(iClonalgClassifier
Anticorpo
p333
(dp334
g3
F0.19039278369766913
sg4
(lp335
F0.2727475657086016
aF0.28878248658621986
aF0.9156597181847399
aF0.22703919611992934
aF0.7194966412425673
aF0.5351546786531977
aF0.00016652650194839448
aF0.36168780723744354
aF0.6386472133976776
aF0.37727485904783115
asba(iClonalgClassifier
Anticorpo
p336
(dp337
g3
F0.19012395703187066
sg4
(lp338
F0.03870281238138222
aF0.6497621083463045
aF0.979686008173868
aF0.36362844484216345
aF0.22468005401042476
aF0.13480320276528035
aF0.5902860099363979
aF0.4042221420426929
aF0.32839437574529284
aF0.7541421198889418
asba(iClonalgClassifier
Anticorpo
p339
(dp340
g3
F0.18950844484212612
sg4
(lp341
F0.8366123698961144
aF0.23864052009152678
aF0.740827571023377
aF0.07172320337674241
aF0.2792110938232889
aF0.18244306522020579
aF0.5739535843782129
aF0.08333475727135807
aF0.32034538625253167
aF0.16296920080127242
asba(iClonalgClassifier
Anticorpo
p342
(dp343
g3
F0.18789771246060105
sg4
(lp344
F0.9655843074446508
aF0.7338478870220536
aF0.46712849408625395
aF0.9497129387786574
aF0.23483440683184914
aF0.38501040300094486
aF0.3160594490713447
aF0.06772430607280447
aF0.014617980427206939
aF0.37796303931192515
asba(iClonalgClassifier
Anticorpo
p345
(dp346
g3
F0.1877858834174046
sg4
(lp347
F0.46
aF0.478
aF0.589
aF0.398
aF0.587
aF0.86
aF0.349
aF0.989
aF0.678
aF0.49
asba.