(lp0
(iClonalgClassifier_M
Anticorpo
p1
(dp2
S'afinidade'
p3
F1.9527539097668831
sS'coordenadas'
p4
(lp5
F0.760797629060933
aF0.43988153977209543
aF0.3365424110737367
aF0.7451120963629471
aF0.2656335500396273
aF0.8346521210220279
aF0.26856727864970736
aF0.3549480484603883
aF0.637528942685278
aF0.054068584842695576
asba(iClonalgClassifier_M
Anticorpo
p6
(dp7
g3
F1.9527539097668831
sg4
(lp8
F0.4981671529232164
aF0.5002166695208018
aF0.28308215418568833
aF0.7066190683232897
aF0.09554627930267795
aF0.5228183196101669
aF0.5256320198495716
aF0.5928024736983581
aF0.5433424355375054
aF0.13099864215195378
asba(iClonalgClassifier_M
Anticorpo
p9
(dp10
g3
F1.9527539097668831
sg4
(lp11
F0.8778303676486625
aF0.25676748102835745
aF0.7061470186989053
aF0.3649534688260878
aF0.3329925809627316
aF0.6513679528780468
aF0.05684012420069869
aF0.4424155838623894
aF0.3136283843066224
aF0.5296391349417736
asba(iClonalgClassifier_M
Anticorpo
p12
(dp13
g3
F1.9527539097668831
sg4
(lp14
F0.5552714455641771
aF0.6658186896659081
aF0.33733134182840874
aF0.9491447315740834
aF0.41996665661174243
aF0.6761056651427335
aF0.3563014073175715
aF0.3487667106497798
aF0.33052944579969384
aF0.5343391669065274
asba(iClonalgClassifier_M
Anticorpo
p15
(dp16
g3
F1.9527539097668831
sg4
(lp17
F0.24117467367278123
aF0.7070490082726459
aF0.45327308518657106
aF0.6507619705767396
aF0.3680441247903312
aF0.47178442878382526
aF0.24227172502887662
aF0.5047991927953636
aF0.10513832493905421
aF0.20849004475921737
asba(iClonalgClassifier_M
Anticorpo
p18
(dp19
g3
F1.9527539097668831
sg4
(lp20
F0.8564475977211908
aF0.7973713047783286
aF0.986595373986318
aF0.2831595457844976
aF0.6678723926933495
aF0.8008562887244202
aF0.10197260846548127
aF0.4011208926709681
aF0.9539861172905847
aF0.20649708654498364
asba(iClonalgClassifier_M
Anticorpo
p21
(dp22
g3
F1.9527539097668831
sg4
(lp23
F0.708744819077631
aF0.9271879449198053
aF0.7784343218615924
aF0.4316280066358324
aF0.6109900589397175
aF-0.004175584244446305
aF0.294708976044879
aF0.5905355350076705
aF0.8269493086869036
aF0.34400306252136603
asba(iClonalgClassifier_M
Anticorpo
p24
(dp25
g3
F1.9527539097668831
sg4
(lp26
F0.6902388185746071
aF0.4599020654073254
aF0.5399204717614965
aF0.5167148467605538
aF0.7732047851459789
aF0.5469030588404021
aF0.3225537315360673
aF0.6143132310111962
aF0.75202234980812
aF0.7808602624907997
asba(iClonalgClassifier_M
Anticorpo
p27
(dp28
g3
F1.9527539097668831
sg4
(lp29
F0.9296678314980901
aF0.3655005576221841
aF0.697315161535223
aF0.532457001551537
aF0.6048609460156784
aF0.7377581387815507
aF0.07981204556919468
aF0.22932399271786977
aF0.1087901678769768
aF0.6512644252623188
asba(iClonalgClassifier_M
Anticorpo
p30
(dp31
g3
F1.9527539097668831
sg4
(lp32
F0.6491774631902172
aF0.3465497205078354
aF0.22493415965720015
aF0.7201928448373007
aF0.4244359347692297
aF0.3870241336296684
aF0.6597995526913089
aF0.6840122733380276
aF0.16640560493657053
aF0.4502533199502792
asba(iClonalgClassifier_M
Anticorpo
p33
(dp34
g3
F1.9527539097668831
sg4
(lp35
F0.6454436285501822
aF0.7643314376900715
aF0.734220903809882
aF0.9051145228334786
aF0.6875091229889677
aF0.8971275934556863
aF0.0980764650002473
aF0.32009141033315125
aF0.6800802254570182
aF0.8240562417671272
asba(iClonalgClassifier_M
Anticorpo
p36
(dp37
g3
F1.9527539097668831
sg4
(lp38
F0.09823132469498275
aF0.17453011684960862
aF0.46466742848663384
aF0.9070597542162209
aF0.4734244735017162
aF0.6734189761124861
aF0.06600140800349756
aF0.5853844077294624
aF0.20107146951836494
aF0.2256419504680817
asba(iClonalgClassifier_M
Anticorpo
p39
(dp40
g3
F1.9527539097668831
sg4
(lp41
F0.3525414950007584
aF0.6679357241234851
aF0.3610504672157551
aF0.737557280960112
aF0.35248434732623557
aF0.686113511684244
aF0.5014588980649968
aF0.3262314361589337
aF0.51406784075008
aF0.6623274461425029
asba(iClonalgClassifier_M
Anticorpo
p42
(dp43
g3
F1.9527539097668831
sg4
(lp44
F0.8599559679008838
aF0.286371543295911
aF0.3243066906998108
aF0.29292999345539456
aF0.09692623576756546
aF0.2937830718523453
aF0.8794305256601942
aF0.9615272125774349
aF0.7836730138279202
aF0.5535080746630748
asba(iClonalgClassifier_M
Anticorpo
p45
(dp46
g3
F1.9527539097668831
sg4
(lp47
F0.6714964947316482
aF0.6732768021605244
aF0.8936993489734245
aF0.997289226804236
aF0.32860871025311006
aF0.7566124091313498
aF0.45558047990585765
aF0.006875248552667893
aF0.5053129752275614
aF0.75579387068863
asba(iClonalgClassifier_M
Anticorpo
p48
(dp49
g3
F1.0000370782738457
sg4
(lp50
F0.8220347281113753
aF0.5682632662054988
aF0.8980346696465924
aF0.7408066091789102
aF0.4217789683848679
aF0.7190805494203931
aF0.5670588883788686
aF0.6000271306919326
aF0.381220532270884
aF0.4194958954247418
asba(iClonalgClassifier_M
Anticorpo
p51
(dp52
g3
F0.978360029345846
sg4
(lp53
F0.9955643883870501
aF0.7292257825104654
aF0.7219847384097956
aF0.9083855520156388
aF0.16529858908642298
aF0.6700882967847943
aF0.8838749700288911
aF0.7393946304399772
aF0.48896508879283784
aF0.5453245645389271
asba(iClonalgClassifier_M
Anticorpo
p54
(dp55
g3
F0.8119891510825518
sg4
(lp56
F0.7223165161520043
aF0.9610960511424306
aF0.9564471309698828
aF0.827578324480452
aF0.4682664464627426
aF0.42065784363285486
aF0.522272254679638
aF0.6197966980251216
aF0.21727030103362324
aF0.2500020512054015
asba(iClonalgClassifier_M
Anticorpo
p57
(dp58
g3
F0.788997631079685
sg4
(lp59
F0.5249424347657075
aF0.38193158988277603
aF0.9827454572653929
aF0.6322729397649889
aF0.7581804884678411
aF0.3145414636945671
aF0.025453906135964658
aF0.8902963293648878
aF0.4322293188620109
aF0.5966892671897419
asba(iClonalgClassifier_M
Anticorpo
p60
(dp61
g3
F0.7255426871341987
sg4
(lp62
F0.8348703604668778
aF0.28687666963428227
aF0.7740394442893865
aF0.3341924596234516
aF0.12421016096243974
aF0.5897965116899221
aF0.499593309252692
aF0.8001828338781283
aF0.7448269884709502
aF0.15706035381200104
asba.