(lp0
(iClonalgClassifier_M
Anticorpo
p1
(dp2
S'afinidade'
p3
F1.2198211327267559
sS'coordenadas'
p4
(lp5
F0.43636835783724087
aF0.8543206605444715
aF0.6329144399590574
aF0.19734514218115956
aF0.4210937800326845
aF0.523167301287023
aF0.32405163444755314
aF0.7411097089596522
aF0.730909694446113
aF0.22097379502348546
asba(iClonalgClassifier_M
Anticorpo
p6
(dp7
g3
F1.2198211327267559
sg4
(lp8
F0.3638800925025747
aF0.6521844692965091
aF0.5593655462703739
aF0.36313517211886864
aF0.16830100862131303
aF0.6422492458027528
aF0.07777270599919535
aF0.9600050237151608
aF0.5593877032952644
aF0.24321456582362774
asba(iClonalgClassifier_M
Anticorpo
p9
(dp10
g3
F1.2198211327267559
sg4
(lp11
F0.8804662152893212
aF0.38349750741668576
aF0.5633358817855642
aF0.3529234362298033
aF0.10448763282839463
aF0.6181109698333116
aF0.2699301751212361
aF0.4653368871815651
aF0.5921393077123067
aF0.6231428859014033
asba(iClonalgClassifier_M
Anticorpo
p12
(dp13
g3
F1.2198211327267559
sg4
(lp14
F0.42015238021025114
aF0.5846372402774838
aF0.24424923511742716
aF0.7939048935625821
aF0.5685525891884733
aF0.6820985201402545
aF0.027257618504174123
aF0.6285698565435829
aF0.7851310857065159
aF0.35251259253278705
asba(iClonalgClassifier_M
Anticorpo
p15
(dp16
g3
F1.2198211327267559
sg4
(lp17
F0.5081802527821325
aF0.7067729888721294
aF0.6667860561531262
aF0.474722814890267
aF0.8978658968879104
aF0.44000694482397634
aF0.7467990449790008
aF0.5995635364768854
aF0.8249337128598456
aF0.4039632731958122
asba(iClonalgClassifier_M
Anticorpo
p18
(dp19
g3
F1.2198211327267559
sg4
(lp20
F0.7033837858808412
aF0.44132505253657095
aF0.7634591172060882
aF0.3348214839393705
aF0.292892464395665
aF0.5562816081251478
aF0.2964259791674241
aF0.6070843089710867
aF0.6267904951795006
aF1.0833812815272217
asba(iClonalgClassifier_M
Anticorpo
p21
(dp22
g3
F1.2198211327267559
sg4
(lp23
F0.8102153310054356
aF0.19678444699845835
aF0.6550805016627975
aF0.26523936831743333
aF0.5746109299387395
aF0.7948673249199583
aF0.011427640946420174
aF0.8230431573736926
aF0.5147669494632325
aF0.9393196628049307
asba(iClonalgClassifier_M
Anticorpo
p24
(dp25
g3
F1.2198211327267559
sg4
(lp26
F0.7272651413841814
aF0.45323234333138523
aF0.5585700210197981
aF0.6239998536426098
aF0.8040148981888989
aF0.672684902941829
aF0.801029773041019
aF0.286142311933685
aF0.4048097254784015
aF0.5306007392542992
asba(iClonalgClassifier_M
Anticorpo
p27
(dp28
g3
F1.2198211327267559
sg4
(lp29
F0.061194854340918065
aF0.8313993345068548
aF1.007601965635732
aF0.6673723895438658
aF0.4366024596974711
aF0.5281322570155238
aF0.14264361198789133
aF0.2128463726483984
aF0.6176958490688682
aF0.04957217569103703
asba(iClonalgClassifier_M
Anticorpo
p30
(dp31
g3
F1.2198211327267559
sg4
(lp32
F0.3796444862289576
aF0.4670357117057933
aF0.9995095614163915
aF0.356339168721679
aF0.1251141683042151
aF0.6620873170546867
aF0.7061491205332385
aF0.9139709801406162
aF0.5877815367168753
aF0.9106290250906283
asba(iClonalgClassifier_M
Anticorpo
p33
(dp34
g3
F1.2198211327267559
sg4
(lp35
F0.5950877315454722
aF0.9778676518582907
aF0.3790039123788082
aF0.633821294635488
aF0.4917704665594796
aF0.15865927668865848
aF0.4077632941454557
aF0.14653499355887925
aF0.8500205494399483
aF0.25927002713124536
asba(iClonalgClassifier_M
Anticorpo
p36
(dp37
g3
F1.2198211327267559
sg4
(lp38
F0.822549349182
aF0.6277180284113195
aF0.6258598006654396
aF0.22629405624316998
aF0.3007820805753208
aF0.14358387547852822
aF0.9493412792929947
aF0.5629276452895688
aF0.9060148907351584
aF0.6606772070314635
asba(iClonalgClassifier_M
Anticorpo
p39
(dp40
g3
F1.2198211327267559
sg4
(lp41
F0.915024886211532
aF1.0101305653121713
aF0.7591959658047669
aF0.06359076980882361
aF0.16493730541644003
aF0.49186161875453904
aF0.7361012062827191
aF0.04327841508107875
aF0.4665420891242091
aF0.27388074949323704
asba(iClonalgClassifier_M
Anticorpo
p42
(dp43
g3
F1.2198211327267559
sg4
(lp44
F0.45873609947878585
aF0.29743942121123407
aF0.6094679873190018
aF0.45100256156584684
aF0.5510449599095114
aF0.9824820823604916
aF0.03929889188060401
aF0.8375162566469044
aF0.6741737146342676
aF0.12364065978070238
asba(iClonalgClassifier_M
Anticorpo
p45
(dp46
g3
F1.2198211327267559
sg4
(lp47
F0.846093864894889
aF0.31843444144171823
aF0.5874720962925007
aF0.5105066254231755
aF0.5017591441317723
aF0.18111163656582852
aF0.8036841166968002
aF0.484400056274217
aF0.5225198071715197
aF0.45603253216934336
asba(iClonalgClassifier_M
Anticorpo
p48
(dp49
g3
F1.2198211327267559
sg4
(lp50
F0.33266961865869626
aF0.7620097637805952
aF0.3163061678000168
aF0.37001400141722196
aF0.09459713956765528
aF0.548215908297804
aF0.409396895139187
aF0.6062414149096733
aF0.656363764784105
aF0.2337668229151867
asba(iClonalgClassifier_M
Anticorpo
p51
(dp52
g3
F1.0000356235219223
sg4
(lp53
F0.9494620808148378
aF0.6238514714961395
aF0.8482127060610476
aF0.6644423496915784
aF0.785761440504315
aF0.6460067063664536
aF0.4033766132106226
aF0.7191372841835242
aF0.4923322177198641
aF0.25466529044939545
asba(iClonalgClassifier_M
Anticorpo
p54
(dp55
g3
F0.8778638023848253
sg4
(lp56
F0.9259212648285751
aF0.8399770143769419
aF0.7459906533778724
aF0.9230134721294092
aF0.06899154442118405
aF0.10706783343307938
aF0.8689795765534694
aF0.6979663416667614
aF0.5929567805488877
aF0.42485927685853037
asba(iClonalgClassifier_M
Anticorpo
p57
(dp58
g3
F0.7992635424831616
sg4
(lp59
F0.7715200319772393
aF0.8421503487967748
aF0.6140122110936818
aF0.9652847613785284
aF0.6218550579578612
aF0.6841889973408252
aF0.723013994659327
aF0.8299906252308289
aF0.8783508495030841
aF0.410132906113636
asba(iClonalgClassifier_M
Anticorpo
p60
(dp61
g3
F0.7833711958638748
sg4
(lp62
F0.5969405923212423
aF0.7896756270500376
aF0.8038566594037266
aF0.6880082203819612
aF0.5252341374462812
aF0.45395874254595964
aF0.3831047356876118
aF0.9673723478887915
aF0.8684440222811818
aF0.40129161974907845
asba.