(lp0
(iClonalgClassifier_M
Anticorpo
p1
(dp2
S'afinidade'
p3
F1.00009308658207
sS'coordenadas'
p4
(lp5
F0.6309085207353728
aF0.5760203081949271
aF0.7660130769950184
aF0.7671331186657566
aF0.5618432946822313
aF0.7062990624495898
aF0.027116783665639386
aF0.2679862374506084
aF0.4319232070489462
aF0.31011670434716404
asba(iClonalgClassifier_M
Anticorpo
p6
(dp7
g3
F0.7853336054571188
sg4
(lp8
F0.3588818142629869
aF0.42263501299624895
aF0.4972634089020939
aF0.4400076369701483
aF0.48377117524972474
aF0.007913849239900808
aF0.4750657387686217
aF0.39533568605575675
aF0.7788657923961826
aF0.8137069839328116
asba(iClonalgClassifier_M
Anticorpo
p9
(dp10
g3
F0.7344400391809051
sg4
(lp11
F0.6999674470008506
aF0.9211442213530329
aF0.5647824536120829
aF0.15236424479425548
aF0.5049642981072713
aF0.4794842701465075
aF0.3953301862628115
aF0.7375641771046767
aF0.6207876656851838
aF0.15738296026480217
asba(iClonalgClassifier_M
Anticorpo
p12
(dp13
g3
F0.7343494421643436
sg4
(lp14
F0.7181286797599002
aF0.6550990947211618
aF0.2901514502475618
aF0.36559549582022716
aF0.5325316394052001
aF0.8855587149481153
aF0.16121507662570478
aF0.4416002334277512
aF0.5556980572613776
aF0.44768915197908643
asba(iClonalgClassifier_M
Anticorpo
p15
(dp16
g3
F0.7137055108175991
sg4
(lp17
F0.5602725443812389
aF0.8204981889277397
aF0.8015410050746685
aF0.7366863061309961
aF0.5529745022130236
aF0.4793007234553727
aF0.17493266453111758
aF0.6909430274330959
aF0.06437857183826351
aF0.537721186105713
asba(iClonalgClassifier_M
Anticorpo
p18
(dp19
g3
F0.6931149966255309
sg4
(lp20
F0.5296682299949517
aF0.311667053400453
aF0.2796610999998806
aF0.743187874359877
aF0.798397916879559
aF0.5363322357971326
aF0.16654106090607718
aF0.47794709338234787
aF0.6598194061101829
aF0.7228261701974795
asba(iClonalgClassifier_M
Anticorpo
p21
(dp22
g3
F0.6867592799585707
sg4
(lp23
F0.7536826651232661
aF0.15487006063742598
aF0.43043824256476176
aF0.2211912041220772
aF0.3177723671991456
aF0.5368236094015774
aF0.3410617587474942
aF1.0074839281104255
aF0.5457774152241387
aF0.15526210209781863
asba(iClonalgClassifier_M
Anticorpo
p24
(dp25
g3
F0.6483348092672743
sg4
(lp26
F0.7540313386716497
aF0.6024496811927736
aF0.5691703883300395
aF0.5945551282227998
aF0.8267605929342476
aF0.2709165919562905
aF0.32741721666241236
aF0.29394739699960476
aF0.786791643510431
aF0.7166189445161704
asba(iClonalgClassifier_M
Anticorpo
p27
(dp28
g3
F0.6366642036120719
sg4
(lp29
F0.28358863740868234
aF0.716039067132232
aF0.8635776092446777
aF0.7543075439501262
aF0.5679824514266357
aF0.5239030069081057
aF0.5077869912113674
aF0.5315231990771112
aF0.6041294185736308
aF0.16770324213297552
asba(iClonalgClassifier_M
Anticorpo
p30
(dp31
g3
F0.6205448463596883
sg4
(lp32
F0.7709463956520165
aF0.569163875836757
aF0.3340165455865135
aF0.5953398640237693
aF0.7818678671143563
aF0.8853692925485441
aF0.1919121996675057
aF0.40550132757207225
aF0.3438325723688769
aF0.10186956016087882
asba(iClonalgClassifier_M
Anticorpo
p33
(dp34
g3
F0.620188056728715
sg4
(lp35
F0.271
aF0.461
aF0.474
aF0.059
aF0.825
aF0.637
aF0.23
aF0.754
aF0.063
aF0.509
asba(iClonalgClassifier_M
Anticorpo
p36
(dp37
g3
F0.5969847337676168
sg4
(lp38
F0.2996145775174158
aF0.415552424735735
aF0.9811672496218058
aF0.23862948545180943
aF0.11214776970857106
aF0.3364155053604001
aF0.1609215676449251
aF0.22079400066620328
aF0.9601396579525364
aF0.08899348316537693
asba(iClonalgClassifier_M
Anticorpo
p39
(dp40
g3
F0.5738301838946502
sg4
(lp41
F0.478
aF0.136
aF0.819
aF0.601
aF0.713
aF0.524
aF0.125
aF0.1
aF0.941
aF0.252
asba(iClonalgClassifier_M
Anticorpo
p42
(dp43
g3
F0.5359154063455105
sg4
(lp44
F0.3119831204783444
aF0.19474926632835854
aF0.5956120495151236
aF0.9077646953453171
aF0.6754681028757442
aF0.4524579726713435
aF0.3631186215790373
aF0.6974079334544581
aF0.838203940094127
aF0.12894277773423699
asba(iClonalgClassifier_M
Anticorpo
p45
(dp46
g3
F0.49777357716033044
sg4
(lp47
F0.6420305227155502
aF0.415199350627915
aF0.8979720264618554
aF0.32150816776410107
aF0.8606793352533725
aF0.6551661554331214
aF0.154891775828881
aF0.5429319218097125
aF0.7243349973917146
aF0.6507880508958217
asba(iClonalgClassifier_M
Anticorpo
p48
(dp49
g3
F0.4858025210561154
sg4
(lp50
F0.887
aF0.669
aF0.863
aF0.619
aF0.419
aF0.012
aF0.024
aF0.98
aF0.777
aF0.159
asba(iClonalgClassifier_M
Anticorpo
p51
(dp52
g3
F0.44995985832159346
sg4
(lp53
F0.2490094748350037
aF0.7724713628892551
aF0.5067944198791768
aF0.6211391243254848
aF0.53382643117118
aF0.7518981676660237
aF0.39119716257828463
aF0.5758173539896421
aF0.8786259650069717
aF0.13149823679379688
asba(iClonalgClassifier_M
Anticorpo
p54
(dp55
g3
F0.4395357592266901
sg4
(lp56
F0.446
aF0.129
aF0.876
aF0.232
aF0.121
aF0.552
aF0.487
aF0.007
aF0.739
aF0.387
asba(iClonalgClassifier_M
Anticorpo
p57
(dp58
g3
F0.43803508847507006
sg4
(lp59
F0.8246695809236939
aF0.35328312169876974
aF0.9605969209216857
aF0.8312866162493028
aF1.0126230686136568
aF0.34615983473789896
aF0.21642837374336277
aF0.7504363354375445
aF0.5969922406278637
aF0.03558318468084944
asba(iClonalgClassifier_M
Anticorpo
p60
(dp61
g3
F0.43803508847507006
sg4
(lp62
F0.49409420506014645
aF0.6915668032677826
aF0.6744117933495303
aF0.12498955795159855
aF0.7675405719842464
aF0.3653362057130647
aF0.5670732135819923
aF0.6289396266125217
aF0.9500376328650335
aF0.42502116082374186
asba.