(lp0
(iClonalgClassifier_M
Anticorpo
p1
(dp2
S'afinidade'
p3
F1.0000492706913784
sS'coordenadas'
p4
(lp5
F0.8910319377914022
aF0.37204399159995294
aF0.9610371978947667
aF0.6789607229763704
aF0.40300167685440846
aF0.19302019517530913
aF0.30898334158809276
aF0.7959836047508397
aF0.2839731321233224
aF0.06702766212511023
asba(iClonalgClassifier_M
Anticorpo
p6
(dp7
g3
F0.991725260661599
sg4
(lp8
F0.4298132954801444
aF0.6118815909164677
aF0.5215162800060343
aF0.939324039257436
aF0.6578191186147602
aF0.015345689388392328
aF0.14611176754231517
aF0.7295834301039199
aF0.27709869775349516
aF0.15430196315222428
asba(iClonalgClassifier_M
Anticorpo
p9
(dp10
g3
F0.864315864601482
sg4
(lp11
F0.8881314584040103
aF0.6717612417920554
aF0.9111997843148056
aF0.656487595774078
aF0.20654630658993156
aF0.7775755782511033
aF0.05508425049768493
aF0.7439022175748108
aF0.6947733062970644
aF0.4007961395781111
asba(iClonalgClassifier_M
Anticorpo
p12
(dp13
g3
F0.6813934607045206
sg4
(lp14
F0.593077139101957
aF0.5861270960995967
aF0.46931604155121065
aF0.5144816773167278
aF0.37230259795036136
aF0.47874129307683716
aF0.7830316630475941
aF0.43984312995982433
aF0.04962261763889656
aF0.44150241787617756
asba(iClonalgClassifier_M
Anticorpo
p15
(dp16
g3
F0.6809272691127602
sg4
(lp17
F0.20354765865972008
aF0.5631793648208236
aF0.7263537258366147
aF0.8916267375428709
aF0.2846154310429486
aF0.6808813013997816
aF0.08737775644354268
aF0.3018035570423807
aF0.22915307629727458
aF0.6539132355107483
asba(iClonalgClassifier_M
Anticorpo
p18
(dp19
g3
F0.6661853907919928
sg4
(lp20
F0.44697500504291277
aF0.6165098172305074
aF0.8702278607013447
aF0.8703719133437979
aF0.2943489424086908
aF0.3675966891616142
aF0.463516007970799
aF0.6994838909869805
aF0.40679394575443706
aF0.8090328562863144
asba(iClonalgClassifier_M
Anticorpo
p21
(dp22
g3
F0.6491813087183439
sg4
(lp23
F0.5076210808273612
aF0.7013715916472473
aF0.36403498483283275
aF0.7703985006676982
aF0.5367745312047834
aF0.7097071368073095
aF0.11635139967244015
aF0.7871729153775432
aF0.9471240906235704
aF0.23236862998577892
asba(iClonalgClassifier_M
Anticorpo
p24
(dp25
g3
F0.6092771019828902
sg4
(lp26
F0.2507045681915359
aF0.6655919601648858
aF0.7026497684211416
aF0.8238668622076168
aF0.03958916213542657
aF0.23973194096746875
aF0.6727763860259197
aF0.33288911045994796
aF0.7164723363989941
aF0.5746097659018922
asba(iClonalgClassifier_M
Anticorpo
p27
(dp28
g3
F0.5887955757579497
sg4
(lp29
F0.6523658439118725
aF0.27089313236276746
aF0.8925366178851561
aF0.16348239330191036
aF0.6850613735796289
aF0.6984659283238641
aF0.3815086890175234
aF0.2847482491457095
aF0.2351585668648906
aF0.3634962302537585
asba(iClonalgClassifier_M
Anticorpo
p30
(dp31
g3
F0.5632796924868043
sg4
(lp32
F0.7429634406827328
aF0.1886654419867692
aF0.760291565998585
aF0.3462373220979782
aF0.3753350771653979
aF0.31044036414655407
aF0.6448534946507565
aF0.22010536229084166
aF0.8945518121229052
aF0.42206853978529485
asba(iClonalgClassifier_M
Anticorpo
p33
(dp34
g3
F0.47972355073496736
sg4
(lp35
F0.4016029666540369
aF1.0193676873706103
aF0.5009667606068128
aF0.8355231232150794
aF1.0174637308501722
aF0.7098478286811923
aF0.4917250258039858
aF0.3362836365426827
aF0.3130882630925878
aF0.25529581288413816
asba(iClonalgClassifier_M
Anticorpo
p36
(dp37
g3
F0.47972355073496736
sg4
(lp38
F0.8437944815761359
aF0.4797451974428893
aF0.7317850966750742
aF0.1771802973016175
aF0.28625512625863136
aF0.48606734977303734
aF0.5102917234505547
aF0.7498764267072398
aF0.2701940931495535
aF0.8237501428587936
asba(iClonalgClassifier_M
Anticorpo
p39
(dp40
g3
F0.47972355073496736
sg4
(lp41
F0.2417107882254089
aF0.24586171400114915
aF0.5342262818860828
aF0.7732201906357187
aF0.8362449436095922
aF0.551194097453368
aF0.3405525304971681
aF0.9140484200286411
aF0.35221977378827163
aF0.045025913791074575
asba(iClonalgClassifier_M
Anticorpo
p42
(dp43
g3
F0.47972355073496736
sg4
(lp44
F0.5323965904398857
aF0.04432505824415768
aF0.3973792247868294
aF0.9568754463916749
aF0.8809448051116666
aF0.06948560640447224
aF0.3130331795940879
aF0.5519339723251627
aF0.3436859464170259
aF0.16114994686790685
asba(iClonalgClassifier_M
Anticorpo
p45
(dp46
g3
F0.47972355073496736
sg4
(lp47
F0.920107259798616
aF0.37212306249019866
aF0.7439831861903979
aF0.9578612472184415
aF0.6028007615764804
aF0.7162189500496513
aF0.1157347405505707
aF0.7829668208797285
aF0.4097316969203038
aF0.7771371114116178
asba(iClonalgClassifier_M
Anticorpo
p48
(dp49
g3
F0.47972355073496736
sg4
(lp50
F0.589211859782401
aF0.41768668863965563
aF0.7039115613817886
aF0.9158633780132526
aF0.3372611769745243
aF0.8706318264545931
aF0.7222595024490547
aF0.9087237045157666
aF0.3287696082208557
aF0.07614350923393755
asba(iClonalgClassifier_M
Anticorpo
p51
(dp52
g3
F0.47972355073496736
sg4
(lp53
F0.9618595837748585
aF0.6021325186707278
aF0.9122123411675536
aF0.9617267484355719
aF0.40229451287992984
aF0.40742367970001103
aF0.9285371685952727
aF0.2918553394150506
aF0.09645660867573447
aF0.4047266405216498
asba(iClonalgClassifier_M
Anticorpo
p54
(dp55
g3
F0.47972355073496736
sg4
(lp56
F0.8042305749765573
aF0.12524111408135058
aF0.5285334285520169
aF0.6491725139466783
aF0.12023397153515492
aF0.6749535290149721
aF0.25082150309908674
aF0.8790222660639195
aF-8.077526451468614e-05
aF0.011500292190398085
asba(iClonalgClassifier_M
Anticorpo
p57
(dp58
g3
F0.47972355073496736
sg4
(lp59
F0.8956926945398408
aF0.6135977551762588
aF0.5836668209473446
aF0.46055558608960107
aF0.8561069973766051
aF0.8790934864205019
aF0.04874013442597685
aF0.40013754449920536
aF0.20228473142546508
aF0.6948673148546887
asba(iClonalgClassifier_M
Anticorpo
p60
(dp61
g3
F0.47972355073496736
sg4
(lp62
F0.9099922800539593
aF0.645409002815794
aF0.4287783856797558
aF0.8726061911124797
aF0.6118750264262799
aF0.9064415820507951
aF0.11793651706627604
aF0.6722303522333368
aF0.7404503560161808
aF0.8532249848428433
asba.