(lp0
(iClonalgClassifier
Anticorpo
p1
(dp2
S'afinidade'
p3
F1.0000155612555959
sS'coordenadas'
p4
(lp5
F0.5734232489623303
aF0.4785178658317695
aF0.49500873450087496
aF0.33698305001978185
aF0.4709340025355768
aF0.11710379943801465
aF0.010573854298796275
aF0.04874112953462143
aF0.4960301068832981
aF0.67322839297037
asba(iClonalgClassifier
Anticorpo
p6
(dp7
g3
F0.8504085997397683
sg4
(lp8
F0.38387888480412463
aF0.678393325014462
aF0.3484969632434215
aF0.3779655535765705
aF0.24958792466265256
aF0.6301181385696357
aF0.02434697600827715
aF0.4277956956408563
aF0.4941332672537379
aF0.09745816396584372
asba(iClonalgClassifier
Anticorpo
p9
(dp10
g3
F0.8301788992161458
sg4
(lp11
F0.30567233294538626
aF0.454173105319794
aF0.571225762818254
aF0.09115737126343834
aF0.27904215401876564
aF0.40004575510116136
aF0.08632545795266057
aF0.021156636697666403
aF0.7824706449084952
aF0.5046041211341279
asba(iClonalgClassifier
Anticorpo
p12
(dp13
g3
F0.7569764999449852
sg4
(lp14
F0.3842002018368932
aF0.7577629403872073
aF0.6694210418954583
aF0.18909838151060457
aF0.6229144326441265
aF0.033959369815660126
aF0.2854373461014104
aF0.11710747046743533
aF0.6362647981360221
aF0.40091132577028293
asba(iClonalgClassifier
Anticorpo
p15
(dp16
g3
F0.6764948284742097
sg4
(lp17
F0.529723115074026
aF0.31215563905988225
aF0.32751826754254987
aF0.387137305069831
aF0.29355618529722544
aF0.3182523931102565
aF0.34618781982110997
aF0.562189687112262
aF0.5343453772705756
aF0.10781699580664728
asba(iClonalgClassifier
Anticorpo
p18
(dp19
g3
F0.6670582840725726
sg4
(lp20
F0.20866558542112354
aF0.42617480488406834
aF0.27073354711835396
aF0.7725549192424226
aF0.3217924598892368
aF0.6262540349558695
aF0.4847828459477832
aF0.13977648706287754
aF0.14578372444066473
aF0.2103165619806469
asba(iClonalgClassifier
Anticorpo
p21
(dp22
g3
F0.6461226265385264
sg4
(lp23
F0.38021068230847527
aF0.5047467168077061
aF0.5459937093820281
aF0.6453585237837921
aF0.5169897161438435
aF0.424455105237637
aF0.19667700485030523
aF0.041981418193100584
aF0.6964089770035103
aF0.3844611726780524
asba(iClonalgClassifier
Anticorpo
p24
(dp25
g3
F0.6195689337233471
sg4
(lp26
F0.41694439300225583
aF0.5733605440657765
aF0.5599411771890673
aF0.45616845805828105
aF0.35427529540354963
aF0.5611561499621116
aF0.0485521839908973
aF0.5345058891451807
aF0.3525684188520853
aF0.7835371697099508
asba(iClonalgClassifier
Anticorpo
p27
(dp28
g3
F0.6028508956180308
sg4
(lp29
F0.3174979524483844
aF0.37784410251368655
aF0.6640655847149435
aF0.46748418944848547
aF0.09190555445343318
aF0.21338910459252625
aF0.05225889861029535
aF0.6586245115562109
aF0.5219595451668948
aF0.41287536215575554
asba(iClonalgClassifier
Anticorpo
p30
(dp31
g3
F0.5971655710753413
sg4
(lp32
F0.5122760503375594
aF0.1788167281778604
aF0.1838311185079126
aF0.4788437498160261
aF0.8112231003680785
aF0.5154166544995212
aF0.13168067498255429
aF0.3041966711122298
aF0.013715847658327247
aF0.4273533633430174
asba(iClonalgClassifier
Anticorpo
p33
(dp34
g3
F0.547818591706535
sg4
(lp35
F0.2691744107572622
aF0.41999815817736286
aF0.7906262255597206
aF0.38652806870905787
aF0.11174794924352385
aF0.7704753109233016
aF0.15976766730719838
aF0.2958426697777517
aF0.46209467298964135
aF0.19083579100461667
asba(iClonalgClassifier
Anticorpo
p36
(dp37
g3
F0.5185953826176845
sg4
(lp38
F0.7615595908293272
aF0.6477746391185247
aF0.2328648582479795
aF0.18475053869330083
aF0.879802041987426
aF0.1424724200637782
aF0.3182422367667354
aF0.45759796949920956
aF0.1391703362444767
aF0.6251675607829882
asba(iClonalgClassifier
Anticorpo
p39
(dp40
g3
F0.5021077918335995
sg4
(lp41
F0.40679723544095925
aF0.3108730545602201
aF0.8254778475924649
aF0.19993849771332328
aF0.45500611056072315
aF0.16871774882748009
aF0.4201301100302839
aF0.5004636297095376
aF0.5876740326206996
aF0.3831489732108073
asba(iClonalgClassifier
Anticorpo
p42
(dp43
g3
F0.4981154229883224
sg4
(lp44
F0.3559993173319454
aF0.4703605298033422
aF0.6391906321996372
aF0.5149888629143639
aF0.24834778182266648
aF0.8112176419229351
aF0.4333201575437185
aF0.00564591884717529
aF0.5576386275531661
aF0.4399436438638803
asba(iClonalgClassifier
Anticorpo
p45
(dp46
g3
F0.49540860577579326
sg4
(lp47
F0.724761788392282
aF0.9833583286312051
aF0.5958266834943678
aF0.635375725157753
aF0.5760526727229384
aF0.05830321687640654
aF0.19776271740942
aF0.5266009172882695
aF0.24762138465366412
aF0.05502641266416193
asba(iClonalgClassifier
Anticorpo
p48
(dp49
g3
F0.49540860577579326
sg4
(lp50
F0.6675978891647948
aF0.6747520779240066
aF0.5945871538417081
aF0.7515332210535336
aF0.4894670353101302
aF0.05188848894305699
aF0.4448288671591606
aF0.49900589317311916
aF0.22643006714981978
aF0.33741740739521026
asba(iClonalgClassifier
Anticorpo
p51
(dp52
g3
F0.49540860577579326
sg4
(lp53
F0.7654514117505147
aF0.7010176074433547
aF0.7189748361179661
aF0.601485526063869
aF0.45935948892571055
aF0.12098755445895827
aF0.3870633834628941
aF0.4253180403745146
aF0.772733070595229
aF0.336215480645731
asba(iClonalgClassifier
Anticorpo
p54
(dp55
g3
F0.49540860577579326
sg4
(lp56
F0.4411616000099785
aF0.44944498449410036
aF0.5075546618132966
aF0.6845525781027754
aF0.4666469209451061
aF0.591282147867386
aF0.28221119040293047
aF0.5784472590473594
aF0.46499182804590045
aF0.6173813992209666
asba(iClonalgClassifier
Anticorpo
p57
(dp58
g3
F0.49540860577579326
sg4
(lp59
F0.6097495831078374
aF0.242146277680049
aF0.5482843756555138
aF0.6542742489698409
aF0.5040756624064681
aF0.18861818039597222
aF0.7118923327510541
aF0.35846068510567214
aF0.20734463913355455
aF0.20236679067457825
asba(iClonalgClassifier
Anticorpo
p60
(dp61
g3
F0.49540860577579326
sg4
(lp62
F0.3338952306415254
aF0.3017699698761145
aF0.830621053584486
aF0.3818718440480052
aF0.10621961072003594
aF0.4370730779196419
aF0.20815536013922345
aF0.4288258678229192
aF0.7173125811789359
aF0.4532337327069467
asba.