(lp0
(iClonalgClassifier_M
Anticorpo
p1
(dp2
S'afinidade'
p3
F1.0000208389860377
sS'coordenadas'
p4
(lp5
F0.21487766883223777
aF0.290760813625806
aF0.2703066139369167
aF0.03741454508966995
aF0.3725041373499036
aF0.5642101365452574
aF0.20166997930517114
aF0.5265731998072676
aF0.25666792006207356
aF0.23522905024480575
asba(iClonalgClassifier_M
Anticorpo
p6
(dp7
g3
F0.9828073569930592
sg4
(lp8
F0.26182806675595127
aF0.4410302758750651
aF0.06312510813283241
aF0.25096591154711506
aF0.4710725098025703
aF0.5994411245343688
aF0.5179646171108618
aF0.356319676009299
aF0.29584570634380164
aF0.3056640302988862
asba(iClonalgClassifier_M
Anticorpo
p9
(dp10
g3
F0.8481368233134429
sg4
(lp11
F0.6580178745447434
aF0.38463437664300326
aF0.34338360267152496
aF0.4202941817766705
aF0.6560647966248515
aF0.6716743204548744
aF0.5343577517131408
aF0.39115238830909244
aF0.3863394320477
aF0.13468737838536116
asba(iClonalgClassifier_M
Anticorpo
p12
(dp13
g3
F0.8398588070895759
sg4
(lp14
F0.32231459600395823
aF0.4865743881322016
aF0.04984151342188776
aF0.12241037768435796
aF0.6492928474459436
aF0.46228874823437816
aF0.5019233230002944
aF0.29110838669450917
aF0.20241424009817802
aF0.2970651552509331
asba(iClonalgClassifier_M
Anticorpo
p15
(dp16
g3
F0.7922245565104706
sg4
(lp17
F0.5326295870666004
aF0.5966704809057867
aF0.3452413121740349
aF0.11195890862555315
aF0.5416338567153535
aF0.4008700387450887
aF0.4559224067484607
aF0.2219634730282433
aF0.5939576436501246
aF0.3220783264406494
asba(iClonalgClassifier_M
Anticorpo
p18
(dp19
g3
F0.7650842446006683
sg4
(lp20
F0.25640261814118087
aF0.6645293922779062
aF0.11284179195078992
aF0.384422603657206
aF0.2992510657416087
aF0.32977492052587903
aF0.5186202055697408
aF0.44389804050249576
aF0.4572932327416537
aF0.15450675506479483
asba(iClonalgClassifier_M
Anticorpo
p21
(dp22
g3
F0.7494677454305492
sg4
(lp23
F0.3171809288772018
aF0.29428446981367457
aF0.5113165263809564
aF0.33991589798472194
aF0.3055424755574847
aF0.5989962406478301
aF0.412401042380947
aF0.7275858501274555
aF0.27992731135589194
aF0.5326455651768252
asba(iClonalgClassifier_M
Anticorpo
p24
(dp25
g3
F0.7291899044826746
sg4
(lp26
F0.5210862375489188
aF0.013562829912614288
aF0.47260151101462955
aF0.29532882601674704
aF0.6089413298238973
aF0.5938528627133304
aF0.19874439681972222
aF0.661883969329284
aF0.4100505494082246
aF0.1746619169034106
asba(iClonalgClassifier_M
Anticorpo
p27
(dp28
g3
F0.7081955370069375
sg4
(lp29
F0.3658694029104276
aF0.3238907418426722
aF0.3860135871145031
aF0.3540325288976804
aF0.12461287734575538
aF0.3447671833655013
aF0.27210983414922374
aF0.5216635115345074
aF0.182724222526246
aF0.5389159578086932
asba(iClonalgClassifier_M
Anticorpo
p30
(dp31
g3
F0.659812908715732
sg4
(lp32
F0.4168905530939372
aF0.13677261624251216
aF0.4255495357555846
aF0.30526002681563413
aF0.42135117155947405
aF0.006756508610297296
aF0.11876888260325003
aF0.49347329161657616
aF0.16895700463512422
aF0.22136905652254796
asba(iClonalgClassifier_M
Anticorpo
p33
(dp34
g3
F0.6562923435941612
sg4
(lp35
F0.3244607343765641
aF0.5889841559081673
aF0.23447040388433374
aF0.3038134346748496
aF0.580222539648218
aF0.041342255020703336
aF0.4715595486901217
aF0.6040852158066038
aF0.05424781642082861
aF0.0983751612770817
asba(iClonalgClassifier_M
Anticorpo
p36
(dp37
g3
F0.6502743421175804
sg4
(lp38
F0.7430652579711623
aF0.29695044469025805
aF0.46990456168770744
aF0.4482168943840027
aF0.3203326231170666
aF0.18397819131381352
aF0.3221310152454156
aF0.29326573507022385
aF0.5057647558530636
aF0.18792986841093695
asba(iClonalgClassifier_M
Anticorpo
p39
(dp40
g3
F0.6476264879507805
sg4
(lp41
F0.45432889917070535
aF0.012158559916268989
aF0.3804906945741553
aF0.3637028765128526
aF0.3285194181361033
aF0.22073847191519186
aF0.28416865187704277
aF0.12888278662034833
aF0.2803210471075098
aF0.18420057330656694
asba(iClonalgClassifier_M
Anticorpo
p42
(dp43
g3
F0.643503073596063
sg4
(lp44
F0.08676047003528478
aF0.4753209908809805
aF0.45735760546444504
aF0.3413904018763834
aF0.4627427465557357
aF0.7606497814745419
aF0.3330192217855446
aF0.32016451344404545
aF0.07376609118078874
aF0.16609426421128495
asba(iClonalgClassifier_M
Anticorpo
p45
(dp46
g3
F0.6391079222425723
sg4
(lp47
F0.8572548829000532
aF0.4454637289777277
aF0.42399176639729635
aF0.1007430746074461
aF0.6537640855006691
aF0.4970926996458523
aF0.508086996425375
aF0.4611581274532533
aF0.4532682932249989
aF0.2728064382133067
asba(iClonalgClassifier_M
Anticorpo
p48
(dp49
g3
F0.5879618279178015
sg4
(lp50
F0.2385488856236096
aF0.3287679830616454
aF0.2840521743837271
aF0.3132019983057588
aF0.0995044049750231
aF0.25037923253575767
aF0.5720101236021827
aF0.12999062393163743
aF0.28654618724224434
aF0.11043816882404088
asba(iClonalgClassifier_M
Anticorpo
p51
(dp52
g3
F0.5794189574104462
sg4
(lp53
F0.7778710921091613
aF0.5409769437641002
aF0.08348170266624469
aF0.20256428312875793
aF0.5998567109169355
aF0.5334970150452528
aF0.29598501175031044
aF0.5402107499394985
aF0.10888233908574603
aF0.2355099735627022
asba(iClonalgClassifier_M
Anticorpo
p54
(dp55
g3
F0.5735905497145647
sg4
(lp56
F0.5513695549525074
aF0.592231677078604
aF0.09731828049430215
aF0.013212209919485414
aF0.3515173057617139
aF0.5395383421472303
aF0.2380476651477073
aF0.476150421396001
aF0.040770103073610994
aF0.18222657011987295
asba(iClonalgClassifier_M
Anticorpo
p57
(dp58
g3
F0.5512358468857649
sg4
(lp59
F0.4417747464939908
aF0.4957712900647613
aF0.4323099976028431
aF0.13807847721253869
aF0.16327056840769838
aF0.7635546059287167
aF0.4019793461148709
aF0.554459356015269
aF0.5329257108519706
aF0.46432046732210563
asba(iClonalgClassifier_M
Anticorpo
p60
(dp61
g3
F0.5470692691057152
sg4
(lp62
F0.7695740942629463
aF0.4549170436755691
aF0.22825224355031365
aF0.5117433684530388
aF0.5411402046254947
aF0.49726235634459104
aF0.06130988966034774
aF0.3424388650926693
aF0.3672335941035673
aF0.09390422923384016
asba(iClonalgClassifier_M
Anticorpo
p63
(dp64
g3
F0.5428082354035203
sg4
(lp65
F0.4641400712718102
aF0.21023882784843922
aF0.27406384702803704
aF0.6864354468275111
aF0.5539706480015251
aF0.4154233732581588
aF0.29497165695252886
aF0.8634231468719495
aF0.4837567135981687
aF0.26249866083440376
asba(iClonalgClassifier_M
Anticorpo
p66
(dp67
g3
F0.5394946885433832
sg4
(lp68
F0.27730584755896653
aF0.7770731529429094
aF0.2900098450061433
aF0.6431359035127787
aF0.49963645972254583
aF0.34255239004885835
aF0.5295888234377361
aF0.22723651914290718
aF0.3081282680524468
aF0.20526637282469845
asba(iClonalgClassifier_M
Anticorpo
p69
(dp70
g3
F0.5333158059195384
sg4
(lp71
F0.24542867711635577
aF0.42093313715916547
aF0.3533626074182705
aF0.4513402194899381
aF0.606252306764925
aF0.07371531298719261
aF0.15808040951748956
aF0.5140490703599963
aF0.7493065349272736
aF0.1589612787848834
asba(iClonalgClassifier_M
Anticorpo
p72
(dp73
g3
F0.5307710849263729
sg4
(lp74
F0.653
aF0.129
aF0.319
aF0.484
aF0.269
aF0.451
aF0.723
aF0.232
aF0.324
aF0.367
asba(iClonalgClassifier_M
Anticorpo
p75
(dp76
g3
F0.5303674938285825
sg4
(lp77
F0.409
aF0.286
aF0.482
aF0.773
aF0.708
aF0.424
aF0.473
aF0.532
aF0.06
aF0.369
asba(iClonalgClassifier_M
Anticorpo
p78
(dp79
g3
F0.5291951020282673
sg4
(lp80
F0.1763096893164259
aF0.8053916984920125
aF0.5841935386190664
aF0.3202071854469923
aF0.6404341857073519
aF0.4070093013527572
aF0.4822913179643144
aF0.7198726898247756
aF0.4166837936595232
aF0.4031551331457684
asba(iClonalgClassifier_M
Anticorpo
p81
(dp82
g3
F0.5288543809672387
sg4
(lp83
F0.21023519912160762
aF0.20106847295531308
aF0.5236673953733239
aF0.28522610981338553
aF0.487552226446182
aF0.9679185855190608
aF0.4719488301317749
aF0.5795928838104522
aF0.31794933743958476
aF0.29260292707032814
asba(iClonalgClassifier_M
Anticorpo
p84
(dp85
g3
F0.5271651399001265
sg4
(lp86
F0.6215307186601075
aF0.5718670911794725
aF0.5116812187977918
aF0.34577627617792184
aF0.4933833982180938
aF0.58628647541066
aF0.6012093619533609
aF0.45702269556467434
aF0.03402586137240353
aF0.5737393522708273
asba(iClonalgClassifier_M
Anticorpo
p87
(dp88
g3
F0.49902032930742096
sg4
(lp89
F0.43264681252771003
aF0.5673785603662688
aF0.42552051543393477
aF0.09389586598848658
aF0.8407651669653073
aF0.8951443849457938
aF0.42144943840165877
aF0.4447970613838301
aF0.309683399400201
aF0.26169708654434815
asba(iClonalgClassifier_M
Anticorpo
p90
(dp91
g3
F0.49735868218394264
sg4
(lp92
F0.5265465016252319
aF0.4078672636787082
aF0.408778796568455
aF0.14810361577604106
aF0.5240483261020346
aF0.7354514439617507
aF0.16836247935078194
aF0.5833702415728284
aF0.7897178484387906
aF0.330432064866581
asba(iClonalgClassifier_M
Anticorpo
p93
(dp94
g3
F0.4945770588895632
sg4
(lp95
F0.0032385947751845967
aF0.7609205176906273
aF0.5133734502890456
aF0.3128992896908351
aF0.517635534783056
aF0.10305262157775957
aF0.5212440378337881
aF0.3326591403999787
aF0.2864424970247978
aF0.1656441378051157
asba(iClonalgClassifier_M
Anticorpo
p96
(dp97
g3
F0.489363880364679
sg4
(lp98
F0.7524856200660911
aF0.2518258566435481
aF0.5590050415512745
aF0.025294035218805
aF0.46221207813965626
aF0.09729753729993573
aF0.3952396506137545
aF0.2021962780591152
aF0.13449823843263145
aF0.1963916706408939
asba(iClonalgClassifier_M
Anticorpo
p99
(dp100
g3
F0.48809490216072854
sg4
(lp101
F0.23754894077766336
aF0.4035415893276366
aF0.5732956709644382
aF0.2825799890108386
aF0.7496763543372968
aF0.7943776573806003
aF0.0651747832195398
aF0.40934027700402303
aF0.5742866179530759
aF0.18108228514270994
asba(iClonalgClassifier_M
Anticorpo
p102
(dp103
g3
F0.4779954592459616
sg4
(lp104
F0.39633685664436413
aF0.388066481431489
aF0.4687851924577286
aF0.16245458102039947
aF0.06150284995605609
aF0.1853297010204665
aF0.23896173167456097
aF0.3553643647299908
aF0.39893042977954485
aF0.6165166122557427
asba(iClonalgClassifier_M
Anticorpo
p105
(dp106
g3
F0.4705610694964058
sg4
(lp107
F0.05897117321285704
aF0.5891167229124828
aF0.3887619802867121
aF0.4920792047644077
aF0.7008637749841835
aF0.549968491260215
aF0.39871138741307854
aF0.588971437461385
aF0.5373281491621452
aF0.606803403104773
asba(iClonalgClassifier_M
Anticorpo
p108
(dp109
g3
F0.4661244412564756
sg4
(lp110
F0.12737394647899153
aF0.6321919272093768
aF0.7007963405874109
aF-0.001401026536158704
aF0.4785423908991289
aF0.5201967046805678
aF0.6690115089601524
aF0.45835579322167475
aF0.5844920140206916
aF0.30324920123204
asba(iClonalgClassifier_M
Anticorpo
p111
(dp112
g3
F0.4647929507986712
sg4
(lp113
F0.24250801775685582
aF0.4130439324340731
aF0.1293619004926507
aF0.4367836228652877
aF0.6008468018396734
aF0.6934628405565397
aF0.7547465596450493
aF0.6103577639379579
aF0.35576075164348053
aF0.5802565202969249
asba(iClonalgClassifier_M
Anticorpo
p114
(dp115
g3
F0.44997501570227494
sg4
(lp116
F0.30035198142216435
aF0.03587695572210492
aF0.19434920053859062
aF0.24971965851721417
aF0.7521614749167418
aF0.41637080504341445
aF0.20199170833038999
aF0.11992402380967401
aF0.028550458328651405
aF0.4091941924512059
asba(iClonalgClassifier_M
Anticorpo
p117
(dp118
g3
F0.4464686401011944
sg4
(lp119
F0.638
aF0.255
aF0.856
aF0.378
aF0.508
aF0.727
aF0.537
aF0.459
aF0.4
aF0.434
asba(iClonalgClassifier_M
Anticorpo
p120
(dp121
g3
F0.4347901582608068
sg4
(lp122
F0.1976835575154958
aF0.07048614447313124
aF0.3129779787327695
aF0.09508702280451385
aF0.13705119718053135
aF0.2999349082451534
aF0.05604632896376317
aF0.6796215684868016
aF0.47569089341917703
aF0.022724995373050214
asba(iClonalgClassifier_M
Anticorpo
p123
(dp124
g3
F0.4332166939678904
sg4
(lp125
F0.3962070488413071
aF0.18886503542413344
aF0.598866433436454
aF0.770391293587241
aF0.3199483501580423
aF0.4266847272001346
aF0.19371104923353338
aF0.13808799845588485
aF0.3709982448391069
aF0.23978976962806325
asba(iClonalgClassifier_M
Anticorpo
p126
(dp127
g3
F0.42385922325675995
sg4
(lp128
F0.2835208904595321
aF0.5685166613484034
aF0.36418950997416183
aF0.45473053427725973
aF0.31945837197183985
aF0.7627811117294391
aF0.6108855405626937
aF0.3871388649307063
aF0.7292668033513733
aF0.476691265043373
asba(iClonalgClassifier_M
Anticorpo
p129
(dp130
g3
F0.42208279294575124
sg4
(lp131
F0.3268738246680938
aF0.46930195101340455
aF0.3537425001372358
aF0.4702167544930774
aF0.6340183875714513
aF0.20345718495274503
aF0.6261314763437776
aF0.889857250104708
aF0.09123039288922269
aF0.5836793521312467
asba(iClonalgClassifier_M
Anticorpo
p132
(dp133
g3
F0.4217134498189834
sg4
(lp134
F0.6007819901895066
aF0.3932385166255889
aF0.8893083028719961
aF0.38206905134189456
aF0.7967325700435155
aF0.21307691669358336
aF0.3124439767916173
aF0.44852706497819583
aF0.4485522176696481
aF0.44592611626576895
asba(iClonalgClassifier_M
Anticorpo
p135
(dp136
g3
F0.4211298065520048
sg4
(lp137
F0.13055101049758255
aF0.21683329805664112
aF0.2632405641089281
aF0.35925550607183293
aF0.6967268110445088
aF0.9666175667672766
aF0.5877484200414167
aF0.5401607864351865
aF0.33348546901274506
aF0.03309346748982224
asba(iClonalgClassifier_M
Anticorpo
p138
(dp139
g3
F0.41686561773787567
sg4
(lp140
F0.4467878454164646
aF0.3231499533003056
aF0.9417828091925228
aF0.07867164789700555
aF0.5130946365681006
aF0.47403556993846147
aF0.17613462152268028
aF0.785947845447943
aF0.2748405309411966
aF0.31747117036352945
asba(iClonalgClassifier_M
Anticorpo
p141
(dp142
g3
F0.41510233078713327
sg4
(lp143
F0.3129606208127471
aF0.655455617564092
aF0.21218514376911393
aF0.3772199938203142
aF0.10240467875934732
aF0.09809037234444938
aF0.5583030752083402
aF0.38537943607262465
aF0.3564223316237052
aF0.5719468786948495
asba(iClonalgClassifier_M
Anticorpo
p144
(dp145
g3
F0.41352547567270453
sg4
(lp146
F0.433
aF0.468
aF0.733
aF0.212
aF0.378
aF0.481
aF0.05
aF0.939
aF0.487
aF0.27
asba(iClonalgClassifier_M
Anticorpo
p147
(dp148
g3
F0.4074323362628611
sg4
(lp149
F0.30234685304930364
aF0.5907850862145771
aF0.34655085748530423
aF0.6389874274452066
aF0.7206058625679653
aF0.5903918553092443
aF0.34529559060071807
aF0.8015183550281187
aF0.5591427507775124
aF0.5390458321963995
asba(iClonalgClassifier_M
Anticorpo
p150
(dp151
g3
F0.39701184031512793
sg4
(lp152
F0.335
aF0.617
aF0.645
aF0.082
aF0.001
aF0.15
aF0.383
aF0.694
aF0.23
aF0.322
asba(iClonalgClassifier_M
Anticorpo
p153
(dp154
g3
F0.39515676049761983
sg4
(lp155
F0.6165904773485168
aF0.5565740578176788
aF0.318096922409755
aF0.13624093906789997
aF0.5677198526178082
aF0.14412213178351654
aF0.9873891404438235
aF0.4176880823799845
aF0.19135228172274574
aF0.3062585823063452
asba(iClonalgClassifier_M
Anticorpo
p156
(dp157
g3
F0.3949858614439604
sg4
(lp158
F0.246
aF0.322
aF0.458
aF0.453
aF0.279
aF0.318
aF0.259
aF0.416
aF0.956
aF0.403
asba(iClonalgClassifier_M
Anticorpo
p159
(dp160
g3
F0.3895697987156709
sg4
(lp161
F0.154
aF0.166
aF0.187
aF0.38
aF0.244
aF0.598
aF0.13
aF0.606
aF0.479
aF0.688
asba(iClonalgClassifier_M
Anticorpo
p162
(dp163
g3
F0.3866911778744472
sg4
(lp164
F0.13275245525967846
aF0.25799735524384376
aF0.17175596632390439
aF0.1740833566443157
aF0.9807309960597437
aF0.1839026061048593
aF0.027025034196968813
aF0.3367311357679771
aF0.4596840018723639
aF0.16907378194641007
asba(iClonalgClassifier_M
Anticorpo
p165
(dp166
g3
F0.38484917661048307
sg4
(lp167
F0.2340979062312809
aF0.5360058844102401
aF0.7239610339384326
aF0.2059655543341807
aF0.0839947852874932
aF0.014988162358170907
aF0.43299130218157555
aF0.4040031039663826
aF0.0608844580533395
aF0.23880140187982735
asba(iClonalgClassifier_M
Anticorpo
p168
(dp169
g3
F0.38354332229830573
sg4
(lp170
F0.311
aF0.336
aF0.271
aF0.493
aF0.258
aF0.003
aF0.763
aF0.063
aF0.296
aF0.255
asba(iClonalgClassifier_M
Anticorpo
p171
(dp172
g3
F0.3833317143956959
sg4
(lp173
F0.115
aF0.383
aF0.606
aF0.365
aF0.964
aF0.537
aF0.557
aF0.797
aF0.521
aF0.436
asba(iClonalgClassifier_M
Anticorpo
p174
(dp175
g3
F0.3774985051682317
sg4
(lp176
F0.34342051425356274
aF0.5414704803405642
aF0.2173542780534681
aF0.5360048238955104
aF0.672391297667907
aF0.04124038266926919
aF0.26756037149582634
aF0.7375901257074851
aF0.7888700706002615
aF0.21401038375499112
asba(iClonalgClassifier_M
Anticorpo
p177
(dp178
g3
F0.3760966172882782
sg4
(lp179
F0.18550299223770006
aF0.018450444509537478
aF0.6738029989184874
aF0.008655407248954718
aF0.4507868247804953
aF0.20282612173744924
aF0.3320514215863678
aF0.30654430196467236
aF0.008130714896765583
aF0.5380759867579884
asba(iClonalgClassifier_M
Anticorpo
p180
(dp181
g3
F0.37385030526255325
sg4
(lp182
F0.835
aF0.788
aF0.357
aF0.508
aF0.41
aF0.603
aF0.521
aF0.242
aF0.463
aF0.114
asba(iClonalgClassifier_M
Anticorpo
p183
(dp184
g3
F0.3736725421578692
sg4
(lp185
F0.2910067526059485
aF0.6819212899557837
aF0.27318933578954163
aF0.5436997286769524
aF0.621537627245835
aF0.8570885419212216
aF0.22817942896921836
aF0.642037659471477
aF0.4332019594074131
aF0.5456614495711627
asba(iClonalgClassifier_M
Anticorpo
p186
(dp187
g3
F0.3718748438264505
sg4
(lp188
F0.08900570910578047
aF0.759972684110469
aF0.147999056521171
aF0.19801898658391462
aF0.30097908363703807
aF0.0670358658685607
aF0.22799674761228628
aF0.3570176608741987
aF0.6149880591155905
aF0.07000697452857592
asba(iClonalgClassifier_M
Anticorpo
p189
(dp190
g3
F0.3685302996456688
sg4
(lp191
F0.15392839616113876
aF0.547567346689491
aF0.610280774844553
aF0.6142557482107543
aF0.5075386354998892
aF0.4833669699657598
aF0.31143618613745483
aF0.2479293378604833
aF0.6208180664896096
aF0.6597653272213612
asba(iClonalgClassifier_M
Anticorpo
p192
(dp193
g3
F0.36788718847542884
sg4
(lp194
F0.611
aF0.123
aF0.46
aF0.345
aF0.761
aF0.046
aF0.374
aF0.748
aF0.282
aF0.669
asba(iClonalgClassifier_M
Anticorpo
p195
(dp196
g3
F0.3628999857128828
sg4
(lp197
F0.023
aF0.297
aF0.63
aF0.22
aF0.9
aF0.769
aF0.427
aF0.265
aF0.106
aF0.383
asba(iClonalgClassifier_M
Anticorpo
p198
(dp199
g3
F0.3587193808694848
sg4
(lp200
F0.118
aF0.601
aF0.201
aF0.223
aF0.465
aF0.936
aF0.42
aF0.261
aF0.002
aF0.062
asba(iClonalgClassifier_M
Anticorpo
p201
(dp202
g3
F0.35649345506548563
sg4
(lp203
F0.879094610248118
aF0.2579184326534569
aF0.23791702955577013
aF0.528353968828018
aF0.5868447370788028
aF0.2226283302354191
aF0.3694804880361095
aF0.7459620048972011
aF0.11211645872377218
aF0.5485805387804071
asba(iClonalgClassifier_M
Anticorpo
p204
(dp205
g3
F0.3511630361086215
sg4
(lp206
F0.214
aF0.427
aF0.012
aF0.765
aF0.718
aF0.419
aF0.191
aF0.704
aF0.518
aF0.427
asba(iClonalgClassifier_M
Anticorpo
p207
(dp208
g3
F0.35007016517562295
sg4
(lp209
F0.15645377867103577
aF0.1466473114286377
aF0.8096049287751096
aF0.3404672277440054
aF0.8140073114401624
aF0.6569949759347203
aF0.6045017442200121
aF0.4691833233869768
aF0.445624138991624
aF0.5708606566774131
asba(iClonalgClassifier_M
Anticorpo
p210
(dp211
g3
F0.34605650977822333
sg4
(lp212
F0.06846782663940187
aF0.14508486539048232
aF0.5646469196271974
aF0.5669200533628366
aF0.794859721818389
aF0.6498672736085103
aF0.7829136537248128
aF0.6395757171671044
aF0.17248332531393012
aF0.04754650868261083
asba(iClonalgClassifier_M
Anticorpo
p213
(dp214
g3
F0.34602589177859483
sg4
(lp215
F0.437
aF0.846
aF0.066
aF0.329
aF0.947
aF0.194
aF0.596
aF0.563
aF0.418
aF0.191
asba(iClonalgClassifier_M
Anticorpo
p216
(dp217
g3
F0.34389716277478893
sg4
(lp218
F0.575
aF0.346
aF0.243
aF0.202
aF0.158
aF0.726
aF0.619
aF0.446
aF0.717
aF0.616
asba(iClonalgClassifier_M
Anticorpo
p219
(dp220
g3
F0.34277864339393793
sg4
(lp221
F0.434
aF0.169
aF0.525
aF0.149
aF0.704
aF0.991
aF0.004
aF0.335
aF0.323
aF0.176
asba(iClonalgClassifier_M
Anticorpo
p222
(dp223
g3
F0.3420614347879285
sg4
(lp224
F0.82
aF0.271
aF0.597
aF0.337
aF0.908
aF0.104
aF0.452
aF0.504
aF0.677
aF0.281
asba(iClonalgClassifier_M
Anticorpo
p225
(dp226
g3
F0.3404061723713631
sg4
(lp227
F0.366
aF0.0
aF0.171
aF0.037
aF0.767
aF0.07
aF0.412
aF0.633
aF0.609
aF0.584
asba(iClonalgClassifier_M
Anticorpo
p228
(dp229
g3
F0.3366404605380955
sg4
(lp230
F0.966
aF0.787
aF0.276
aF0.164
aF0.377
aF0.5
aF0.385
aF0.223
aF0.438
aF0.261
asba(iClonalgClassifier_M
Anticorpo
p231
(dp232
g3
F0.3342238158980434
sg4
(lp233
F0.031
aF0.358
aF0.72
aF0.067
aF0.532
aF0.234
aF0.001
aF0.686
aF0.551
aF0.52
asba(iClonalgClassifier_M
Anticorpo
p234
(dp235
g3
F0.3325655997406255
sg4
(lp236
F0.1804176829878935
aF0.11819571274292094
aF0.11982676845505935
aF0.027597004224076887
aF0.1230240113762353
aF0.7034649339207696
aF0.027247931865357476
aF0.45517972355306124
aF0.08037430774045617
aF0.13224215720708957
asba(iClonalgClassifier_M
Anticorpo
p237
(dp238
g3
F0.3262498165111715
sg4
(lp239
F0.747
aF0.212
aF0.488
aF0.079
aF0.648
aF0.238
aF0.829
aF0.066
aF0.095
aF0.323
asba(iClonalgClassifier_M
Anticorpo
p240
(dp241
g3
F0.32487509863199593
sg4
(lp242
F0.416
aF0.163
aF0.723
aF0.689
aF0.09
aF0.632
aF0.739
aF0.449
aF0.333
aF0.145
asba(iClonalgClassifier_M
Anticorpo
p243
(dp244
g3
F0.32468872705703117
sg4
(lp245
F0.253
aF0.438
aF0.435
aF0.947
aF0.241
aF0.576
aF0.18
aF0.471
aF0.408
aF0.006
asba(iClonalgClassifier_M
Anticorpo
p246
(dp247
g3
F0.32455679489584427
sg4
(lp248
F0.49872350676163535
aF0.01845209234084535
aF0.5030170464700654
aF0.20158931070568809
aF0.7265104146412816
aF-0.001687537423224512
aF0.16188811783373713
aF0.4776670368080068
aF0.7473024151616245
aF0.4907370564154619
asba(iClonalgClassifier_M
Anticorpo
p249
(dp250
g3
F0.32123663958442394
sg4
(lp251
F0.249
aF0.238
aF0.502
aF0.226
aF0.614
aF0.169
aF0.738
aF0.486
aF0.641
aF0.811
asba(iClonalgClassifier_M
Anticorpo
p252
(dp253
g3
F0.31912262468116387
sg4
(lp254
F0.473
aF0.215
aF0.64
aF0.398
aF0.332
aF0.798
aF0.887
aF0.814
aF0.417
aF0.365
asba(iClonalgClassifier_M
Anticorpo
p255
(dp256
g3
F0.31891845181436396
sg4
(lp257
F0.697
aF0.299
aF0.557
aF0.002
aF0.111
aF0.844
aF0.13
aF0.412
aF0.164
aF0.07
asba(iClonalgClassifier_M
Anticorpo
p258
(dp259
g3
F0.3148723353040389
sg4
(lp260
F0.743385625281035
aF0.5198714635275682
aF0.04738335961933553
aF0.2695411486061813
aF0.2542070134544597
aF0.6863312624917471
aF0.5687063996848885
aF0.14351814855419534
aF0.3728625257760241
aF0.6006880643511718
asba(iClonalgClassifier_M
Anticorpo
p261
(dp262
g3
F0.3120418146008843
sg4
(lp263
F0.6565949670081815
aF0.4658897096502973
aF0.38636635286273885
aF0.13590265593112638
aF0.8521527762631121
aF0.23008457687552764
aF0.7488616476674772
aF0.8817390817928089
aF0.7081325122900984
aF0.22543387529325248
asba(iClonalgClassifier_M
Anticorpo
p264
(dp265
g3
F0.31189528692669316
sg4
(lp266
F0.6484223358688269
aF0.6716081175148417
aF0.11176602238794192
aF0.40326553475253357
aF0.556000038690148
aF0.4457099332459914
aF0.2704376719846068
aF0.4728359254416952
aF0.6572986459371726
aF0.7738090275731921
asba(iClonalgClassifier_M
Anticorpo
p267
(dp268
g3
F0.31100445625671563
sg4
(lp269
F0.33023105052447077
aF0.0873348686684205
aF0.6137961164730604
aF0.11871374043059346
aF0.40344216352686
aF0.2920427557438277
aF0.51890380766022
aF0.8635531037483524
aF0.6858714382445297
aF0.6918748907416
asba(iClonalgClassifier_M
Anticorpo
p270
(dp271
g3
F0.30970168382544727
sg4
(lp272
F0.197
aF0.556
aF0.066
aF0.384
aF0.593
aF0.938
aF0.16
aF0.517
aF0.189
aF0.604
asba(iClonalgClassifier_M
Anticorpo
p273
(dp274
g3
F0.30965304467903687
sg4
(lp275
F0.097
aF0.758
aF0.585
aF0.467
aF0.141
aF0.162
aF0.408
aF0.367
aF0.521
aF0.604
asba(iClonalgClassifier_M
Anticorpo
p276
(dp277
g3
F0.30880740501200493
sg4
(lp278
F0.853
aF0.419
aF0.512
aF0.52
aF0.833
aF0.515
aF0.87
aF0.552
aF0.151
aF0.115
asba(iClonalgClassifier_M
Anticorpo
p279
(dp280
g3
F0.30818206646413704
sg4
(lp281
F0.139
aF0.886
aF0.485
aF0.144
aF0.856
aF0.224
aF0.02
aF0.362
aF0.421
aF0.082
asba(iClonalgClassifier_M
Anticorpo
p282
(dp283
g3
F0.30797532498135816
sg4
(lp284
F0.869
aF0.41
aF0.601
aF0.731
aF0.226
aF0.497
aF0.475
aF0.455
aF0.105
aF0.46
asba(iClonalgClassifier_M
Anticorpo
p285
(dp286
g3
F0.30694800266494054
sg4
(lp287
F0.412
aF0.238
aF0.717
aF0.085
aF0.264
aF0.277
aF0.765
aF0.488
aF0.517
aF0.764
asba(iClonalgClassifier_M
Anticorpo
p288
(dp289
g3
F0.30579851442889483
sg4
(lp290
F0.334
aF0.883
aF0.46
aF0.181
aF0.184
aF0.166
aF0.542
aF0.24
aF0.757
aF0.293
asba(iClonalgClassifier_M
Anticorpo
p291
(dp292
g3
F0.30440975560928624
sg4
(lp293
F0.534
aF0.504
aF0.15
aF0.19
aF0.986
aF0.401
aF0.876
aF0.813
aF0.41
aF0.369
asba(iClonalgClassifier_M
Anticorpo
p294
(dp295
g3
F0.30079685272287493
sg4
(lp296
F0.854
aF0.441
aF0.081
aF0.505
aF0.407
aF0.303
aF0.021
aF0.391
aF0.288
aF0.634
asba(iClonalgClassifier_M
Anticorpo
p297
(dp298
g3
F0.29960164974365655
sg4
(lp299
F0.557
aF0.909
aF0.381
aF0.391
aF0.648
aF0.677
aF0.237
aF0.873
aF0.107
aF0.409
asba(iClonalgClassifier_M
Anticorpo
p300
(dp301
g3
F0.29908983591603444
sg4
(lp302
F0.25887861515593386
aF0.5334003885143148
aF0.8733911825277694
aF0.25190531911316444
aF0.5452595438425528
aF0.8428016162663035
aF0.18588822363043056
aF0.7521138452000501
aF0.07213462766894163
aF0.012246042373621202
asba.