(lp0
(iClonalgClassifier_M
Anticorpo
p1
(dp2
S'afinidade'
p3
F1.0000806444457533
sS'coordenadas'
p4
(lp5
F0.9880245866115315
aF0.6859706312684508
aF0.6750428967519815
aF0.9530108509402775
aF0.1399873504459577
aF0.7889828292173946
aF0.26198102639842286
aF0.9979738027689986
aF0.25797192208421615
aF0.07996885203926728
asba(iClonalgClassifier_M
Anticorpo
p6
(dp7
g3
F0.8064864171340042
sg4
(lp8
F0.5160091255983601
aF0.7483448106414776
aF0.12106446254056978
aF0.5550797230105916
aF0.6378848925530521
aF0.38680706326591474
aF0.14920043021881893
aF0.5625635299782783
aF0.1779089292837133
aF0.2868127525392917
asba(iClonalgClassifier_M
Anticorpo
p9
(dp10
g3
F0.8064864171340042
sg4
(lp11
F0.3934810084416196
aF0.8222582336560625
aF0.7215072477952469
aF0.13658681581400192
aF-0.06432706805330345
aF0.6842448742509553
aF0.02512131389315369
aF0.3677785837878372
aF0.4855014304413993
aF0.5513300020859265
asba(iClonalgClassifier_M
Anticorpo
p12
(dp13
g3
F0.8064864171340042
sg4
(lp14
F0.6037180550387581
aF0.23630099799069504
aF0.6461999678706578
aF0.19197437025501582
aF0.2573358532710101
aF0.6861904792300544
aF0.5884113200713839
aF0.3384989501701519
aF0.3461167961561222
aF-0.05259602135616837
asba(iClonalgClassifier_M
Anticorpo
p15
(dp16
g3
F0.8064864171340042
sg4
(lp17
F0.7351093214592186
aF0.7337066035199317
aF0.5168527140342362
aF0.339222710311732
aF0.09492201175127267
aF0.585680867272968
aF0.5420812456819287
aF0.12892536089289988
aF0.7765814002119099
aF0.17283981241744167
asba(iClonalgClassifier_M
Anticorpo
p18
(dp19
g3
F0.8064864171340042
sg4
(lp20
F0.6348343518749014
aF0.9829999250514911
aF0.34322446883251206
aF0.35307330264457365
aF0.26885940495270233
aF0.47680728233101277
aF0.14846342943716978
aF0.3007394442783684
aF0.2960396591378827
aF0.48219876291175495
asba(iClonalgClassifier_M
Anticorpo
p21
(dp22
g3
F0.8064864171340042
sg4
(lp23
F0.7026464386543839
aF0.4534030969835706
aF0.7012126200012371
aF0.17973504858096967
aF0.3631969576944293
aF0.7392296977474053
aF0.6271885312851122
aF-0.017822291336315493
aF0.5450000033437559
aF0.11994434068660448
asba(iClonalgClassifier_M
Anticorpo
p24
(dp25
g3
F0.8064864171340042
sg4
(lp26
F0.012213021326411423
aF0.6801352750880357
aF0.6498703695200215
aF0.7058669573465564
aF0.3014102666339881
aF0.56740969690439
aF0.27458223312784047
aF0.27027550349617085
aF0.3814386333551102
aF0.3010046849015446
asba(iClonalgClassifier_M
Anticorpo
p27
(dp28
g3
F0.8064864171340042
sg4
(lp29
F0.517463403230791
aF0.6899787204012587
aF-0.03821112633972884
aF0.7720293160332462
aF0.16141454119864812
aF0.21473892606346223
aF0.6729340964051844
aF0.28991382776936725
aF0.5479737971997871
aF0.1288228382911357
asba(iClonalgClassifier_M
Anticorpo
p30
(dp31
g3
F0.8064864171340042
sg4
(lp32
F0.2590031484257308
aF0.8190866397441114
aF0.7896889107121028
aF0.21987185054029923
aF0.5411596573769097
aF0.2942029502106318
aF0.6495635974798204
aF0.6379391652561759
aF0.4100705824011135
aF0.5235106033346923
asba(iClonalgClassifier_M
Anticorpo
p33
(dp34
g3
F0.8064864171340042
sg4
(lp35
F1.084853576946065
aF0.2898210423482199
aF0.25444405867784636
aF0.4218103313431594
aF0.15767592981952278
aF0.3559621774485941
aF0.5042522028885967
aF0.32438491027751903
aF0.7696686558016204
aF0.32235728514197803
asba(iClonalgClassifier_M
Anticorpo
p36
(dp37
g3
F0.8064864171340042
sg4
(lp38
F0.35189740388958735
aF0.056963142369784364
aF0.5397090774594574
aF0.22384740747666942
aF0.5087900721860497
aF0.586308964158341
aF0.19535000500644473
aF0.5967290526355598
aF0.9260137336940351
aF0.033450263246353265
asba(iClonalgClassifier_M
Anticorpo
p39
(dp40
g3
F0.8064864171340042
sg4
(lp41
F0.24224356695873941
aF0.43293449052849287
aF0.42365641596588216
aF0.5944623069770478
aF0.4908262466334864
aF0.7141864903136422
aF0.2857040316615937
aF0.7302548008408444
aF0.22969556807228816
aF0.8788380426987513
asba(iClonalgClassifier_M
Anticorpo
p42
(dp43
g3
F0.8064864171340042
sg4
(lp44
F0.27078272543917176
aF0.4307622574647328
aF0.3001291302106169
aF0.7378442527023925
aF-0.16186543295118455
aF0.7521208450404794
aF0.035172202366359255
aF0.8091670352557757
aF0.16407666187847858
aF0.5335361402606339
asba(iClonalgClassifier_M
Anticorpo
p45
(dp46
g3
F0.8064864171340042
sg4
(lp47
F1.0571678039874972
aF0.6364727447249797
aF0.20850406587718703
aF0.23721832225942682
aF0.08576563168153659
aF0.33140692008390654
aF0.7385385980357304
aF0.5007519434542145
aF0.5823796188138605
aF0.04306170151363792
asba(iClonalgClassifier_M
Anticorpo
p48
(dp49
g3
F0.8064864171340042
sg4
(lp50
F0.353097051856439
aF0.5731349464506038
aF0.920120979816075
aF0.5176929212038296
aF0.6441815763676487
aF0.512537660566666
aF0.06580575472307566
aF0.3692953064402393
aF0.9782886000117683
aF0.7651608075251907
asba(iClonalgClassifier_M
Anticorpo
p51
(dp52
g3
F0.8064864171340042
sg4
(lp53
F0.9011761104283055
aF0.3699328448571954
aF0.49103580819348375
aF0.36323394467995856
aF0.3133590839342765
aF0.1595303636790838
aF0.04690200550241033
aF0.825886029751539
aF0.5798108450054639
aF0.9167448343334219
asba(iClonalgClassifier_M
Anticorpo
p54
(dp55
g3
F0.8064864171340042
sg4
(lp56
F0.7597390082494397
aF0.4046181210356819
aF0.44871744992402945
aF0.268537909518799
aF0.8518145955036333
aF0.9980692639046048
aF0.18118275354302502
aF0.17927327639396162
aF0.27342385049861534
aF0.09877098279726555
asba(iClonalgClassifier_M
Anticorpo
p57
(dp58
g3
F0.8064864171340042
sg4
(lp59
F0.4300301865241406
aF0.2192348878302949
aF0.6589355468341496
aF0.5501762203170552
aF0.30125640854205693
aF0.29323817310435235
aF0.7932649184956101
aF0.3473742824159366
aF0.3100878469349622
aF0.6415467522565028
asba(iClonalgClassifier_M
Anticorpo
p60
(dp61
g3
F0.8064864171340042
sg4
(lp62
F0.2587191400017282
aF0.3680645679291803
aF0.9958891382979387
aF0.46123668753857977
aF0.5441681911288981
aF0.359261197520212
aF0.7597018112634849
aF0.1553606152044028
aF0.6360169837338889
aF0.4581725336974456
asba(iClonalgClassifier_M
Anticorpo
p63
(dp64
g3
F0.8064864171340042
sg4
(lp65
F0.5874530956680044
aF0.9622662422578057
aF0.21643013793174143
aF0.4689693564045124
aF0.544671218260998
aF0.31629719943308676
aF0.6040190219456444
aF0.3853121158377627
aF0.23151531332539566
aF0.4533525748838157
asba(iClonalgClassifier_M
Anticorpo
p66
(dp67
g3
F0.8064864171340042
sg4
(lp68
F0.6113242629139144
aF0.8464283732564925
aF0.06804811107958542
aF0.7736691614460504
aF0.058980606537822444
aF0.9031915577552431
aF0.6713193737221551
aF0.4804223737319372
aF0.3769193953568627
aF0.5720861976521664
asba(iClonalgClassifier_M
Anticorpo
p69
(dp70
g3
F0.8064864171340042
sg4
(lp71
F0.7379477495680085
aF0.5159345845770187
aF0.9316774505169032
aF0.1543867970356133
aF0.07347575273262177
aF0.8820809602571354
aF0.7207560093291496
aF0.22256066064030364
aF0.6966686811868643
aF0.21558631031273687
asba(iClonalgClassifier_M
Anticorpo
p72
(dp73
g3
F0.8064864171340042
sg4
(lp74
F0.6370030385885269
aF0.33801008763948526
aF0.8259424339952516
aF0.0932171042423432
aF0.2708239778407162
aF0.28567867196058694
aF0.453853184859109
aF0.686501325505836
aF0.17804287414593237
aF0.8341296663707696
asba(iClonalgClassifier_M
Anticorpo
p75
(dp76
g3
F0.8064864171340042
sg4
(lp77
F0.2716547475487716
aF0.7049729417528812
aF0.8924828407513067
aF0.576851304540346
aF0.19477901580681847
aF0.33503756883181873
aF0.5018255372520843
aF0.3776135739992318
aF0.867931239310582
aF0.8033038522359022
asba(iClonalgClassifier_M
Anticorpo
p78
(dp79
g3
F0.8064864171340042
sg4
(lp80
F0.6080015215679566
aF0.5544201987288657
aF0.576468274573295
aF0.18036523882571404
aF0.6331589545021871
aF0.9242187531684868
aF0.20038018642179714
aF0.45352216883700314
aF0.31530874039169715
aF0.6771038062941811
asba(iClonalgClassifier_M
Anticorpo
p81
(dp82
g3
F0.8064864171340042
sg4
(lp83
F0.03235577739971926
aF0.3024279292717399
aF0.4396674169645575
aF0.8360313590496855
aF-0.007662955840704155
aF0.4450753092727949
aF0.23150129074875167
aF0.5321421092679753
aF0.777246531284168
aF0.19804927788409524
asba(iClonalgClassifier_M
Anticorpo
p84
(dp85
g3
F0.8064864171340042
sg4
(lp86
F0.3892695358301861
aF0.6652438637195275
aF0.5488260301153444
aF0.19464970946129093
aF0.5144579671484183
aF-0.035289254883885984
aF0.303261395130548
aF0.7606741259135588
aF0.7188789159807452
aF0.2422164592141859
asba(iClonalgClassifier_M
Anticorpo
p87
(dp88
g3
F0.8064864171340042
sg4
(lp89
F0.9359846697633395
aF0.5326043739495644
aF0.08193813922254425
aF0.5109794373519359
aF-0.02912733170683026
aF0.4943044349492368
aF0.259567457700288
aF0.5127297871406648
aF0.8410925802937088
aF0.13121952912793833
asba(iClonalgClassifier_M
Anticorpo
p90
(dp91
g3
F0.8064864171340042
sg4
(lp92
F0.6710952886534454
aF0.8542222195780173
aF0.4989982906990363
aF-0.0004932850733062755
aF0.07644236304606888
aF1.101807104457735
aF0.10892167588589623
aF0.5168045842203272
aF0.5148743429381225
aF0.47728768807099736
asba(iClonalgClassifier_M
Anticorpo
p93
(dp94
g3
F0.8064864171340042
sg4
(lp95
F0.024669795036924957
aF0.6954268674894909
aF1.031101860078098
aF0.6595761726078415
aF0.11331053515789673
aF0.14010787325190066
aF0.1616450288538478
aF0.6210752310152103
aF0.9554801330852004
aF0.20752227038521945
asba(iClonalgClassifier_M
Anticorpo
p96
(dp97
g3
F0.8064864171340042
sg4
(lp98
F0.9923241649646518
aF0.41572960783160207
aF0.4833178393145766
aF0.19521615410950402
aF0.4337500154467844
aF0.16673700279749154
aF0.9421156235051155
aF0.6665743865339064
aF0.7128730212005997
aF0.45205085820821433
asba(iClonalgClassifier_M
Anticorpo
p99
(dp100
g3
F0.8064864171340042
sg4
(lp101
F0.5155825031296475
aF0.20358044182577234
aF0.8771746410728
aF-0.04206097403038808
aF0.18008521619843162
aF0.8957293446314316
aF0.20456666912574395
aF0.7144720015213745
aF0.35467848246103023
aF0.02652521781778181
asba(iClonalgClassifier_M
Anticorpo
p102
(dp103
g3
F0.8064864171340042
sg4
(lp104
F0.3872196305451853
aF0.5004281258645038
aF0.8145239588538594
aF0.31097231594364544
aF0.682977263905539
aF0.9258925544374358
aF0.5687521347328933
aF0.2216615079354568
aF0.3582046415881282
aF0.41552590202770845
asba(iClonalgClassifier_M
Anticorpo
p105
(dp106
g3
F0.8064864171340042
sg4
(lp107
F0.13894135004249886
aF-0.13710894015502129
aF0.6425528968282281
aF0.3954880560385316
aF0.4248223605544779
aF0.9860632712465743
aF0.8172440297130956
aF0.646894618747551
aF0.3219619293460523
aF0.595899243407099
asba(iClonalgClassifier_M
Anticorpo
p108
(dp109
g3
F0.8064864171340042
sg4
(lp110
F0.5386371542187958
aF0.23950200968538676
aF0.13144527215003077
aF0.6286683044230346
aF0.9785832064138105
aF0.6339174832976058
aF0.6205560914844268
aF1.097784975528568
aF0.6552177003998518
aF0.07557985985493985
asba(iClonalgClassifier_M
Anticorpo
p111
(dp112
g3
F0.8064864171340042
sg4
(lp113
F0.5783224049352104
aF0.1128397126513602
aF0.4525642981093247
aF0.30459925060179194
aF0.0399874278729039
aF0.5301304303736313
aF0.5468017876329944
aF0.8203264116235224
aF0.5976113927624453
aF0.48807824164491254
asba(iClonalgClassifier_M
Anticorpo
p114
(dp115
g3
F0.8064864171340042
sg4
(lp116
F0.5593728943637475
aF0.3648606531869072
aF0.20534615210756538
aF0.5812022312671774
aF0.5010844799143986
aF0.8158119174713149
aF0.2051481148658619
aF0.26647460277663226
aF0.14849025005576147
aF0.6067530840393779
asba(iClonalgClassifier_M
Anticorpo
p117
(dp118
g3
F0.8064864171340042
sg4
(lp119
F0.33611629143595473
aF0.9589292862149024
aF0.6610321564425669
aF0.1504721863142139
aF0.33903101329461016
aF0.3071527278238765
aF0.2524317871208985
aF0.8179388798496525
aF0.5981243087949836
aF0.13572099105873797
asba(iClonalgClassifier_M
Anticorpo
p120
(dp121
g3
F0.8064864171340042
sg4
(lp122
F0.5263793728507444
aF0.4966673844225989
aF0.33282702193180347
aF0.8377757441902319
aF0.93844568272746
aF0.9099765851139353
aF0.03313289294319212
aF0.5340216725007356
aF0.7931753673136941
aF0.7544391099977066
asba(iClonalgClassifier_M
Anticorpo
p123
(dp124
g3
F0.8064864171340042
sg4
(lp125
F0.5990048016542164
aF0.4662620410530197
aF0.6578889441028825
aF0.18596459139176919
aF0.3814169758428011
aF0.2631391531118559
aF0.19777905454102185
aF0.15786990291825617
aF0.5499686166411898
aF0.47116917387637614
asba(iClonalgClassifier_M
Anticorpo
p126
(dp127
g3
F0.8064864171340042
sg4
(lp128
F0.2798719334104876
aF0.7033899447475885
aF0.19690364915537406
aF0.6248567751154454
aF0.3484662253332765
aF0.5860759715935456
aF0.48211042156637557
aF0.6677699850919704
aF0.05002270056983353
aF0.19524638496918323
asba(iClonalgClassifier_M
Anticorpo
p129
(dp130
g3
F0.8064864171340042
sg4
(lp131
F0.36447682815993737
aF0.8514749371922545
aF0.6216961630528964
aF0.48292258489719814
aF0.31528341078820177
aF0.10201866479164703
aF0.773427563491665
aF0.3848130895405678
aF0.6167328889688096
aF0.21488326867857244
asba(iClonalgClassifier_M
Anticorpo
p132
(dp133
g3
F0.8064864171340042
sg4
(lp134
F0.9744823273339671
aF0.6942651374121703
aF0.1508821911044383
aF0.35226385949916467
aF0.3247713890899052
aF0.31686236735467355
aF0.6560235190191781
aF0.821480610896926
aF0.46352690360786625
aF0.46586780589125165
asba(iClonalgClassifier_M
Anticorpo
p135
(dp136
g3
F0.8064864171340042
sg4
(lp137
F0.33361747399997727
aF0.5073481549195099
aF1.0484517349291416
aF0.3705352595792313
aF0.4966143224037072
aF0.7444218189431485
aF0.2956918414025875
aF0.0967245203732866
aF0.7094070150241557
aF0.6864941595903107
asba(iClonalgClassifier_M
Anticorpo
p138
(dp139
g3
F0.8064864171340042
sg4
(lp140
F0.3298727120930384
aF0.18509075269911443
aF0.8506104743038259
aF0.2655668721061332
aF0.4708282605376587
aF0.490448458726665
aF0.6988315218910832
aF0.7561592366801432
aF0.551300626992202
aF0.8498510007222845
asba(iClonalgClassifier_M
Anticorpo
p141
(dp142
g3
F0.8064864171340042
sg4
(lp143
F0.7083209839367234
aF0.5709672104664718
aF0.3462196037947948
aF0.057771874506460444
aF0.48299755490373114
aF0.6793822866969996
aF0.5162276951988547
aF0.45486417771987
aF0.7582789471966008
aF-0.04729797306243621
asba(iClonalgClassifier_M
Anticorpo
p144
(dp145
g3
F0.8064864171340042
sg4
(lp146
F0.14109836679275786
aF0.7805374837802577
aF0.6144994899913964
aF0.5926431634544223
aF0.8846773736786837
aF0.40767941418181197
aF0.21898409691428025
aF0.6178653866644785
aF0.9213388088678963
aF0.3001866382757259
asba(iClonalgClassifier_M
Anticorpo
p147
(dp148
g3
F0.8064864171340042
sg4
(lp149
F0.7577770272008659
aF0.3670364945990309
aF0.5460227222952705
aF0.15224478540829292
aF0.08455286462374527
aF0.3764374360603584
aF0.14058055576735234
aF0.6584559649744733
aF0.2816486609670199
aF0.5922477836679836
asba(iClonalgClassifier_M
Anticorpo
p150
(dp151
g3
F0.8064864171340042
sg4
(lp152
F0.384681868312561
aF0.6151508761703716
aF0.6853856140410344
aF0.2243285321520474
aF0.7476587736234558
aF0.1942091298921411
aF-0.038347118680297845
aF0.8291742074045524
aF0.30601127108412185
aF0.6565636717926444
asba(iClonalgClassifier_M
Anticorpo
p153
(dp154
g3
F0.8064864171340042
sg4
(lp155
F0.8073068065055232
aF0.009057532540241407
aF0.05191026146462775
aF0.24255329404392456
aF0.40745713789911864
aF0.5684289144629544
aF0.4584985099704977
aF0.717503990607439
aF0.2569513643602477
aF0.3767320065937083
asba(iClonalgClassifier_M
Anticorpo
p156
(dp157
g3
F0.8064864171340042
sg4
(lp158
F0.36018157100454423
aF0.3841093198516735
aF0.29759172621387003
aF0.7057940799420062
aF0.6655750541658306
aF0.8272002655676322
aF0.7344459043263522
aF-0.08071370926592021
aF0.9690867734730965
aF0.3231307853261525
asba(iClonalgClassifier_M
Anticorpo
p159
(dp160
g3
F0.8064864171340042
sg4
(lp161
F0.4914578425807827
aF0.19912089344375775
aF0.6397769559920468
aF0.5344018846690761
aF0.8235678543628091
aF0.8756068181045653
aF0.856515485261941
aF0.5777208648834806
aF0.8111866752242649
aF0.3116822135440228
asba(iClonalgClassifier_M
Anticorpo
p162
(dp163
g3
F0.8064864171340042
sg4
(lp164
F0.43567134555963527
aF0.5547293731991964
aF0.5236981456764336
aF0.7453207439034408
aF0.5889799729722999
aF0.23604250755380574
aF1.0804427436436335
aF0.14002771226609464
aF0.7868051276937804
aF0.38994450522022894
asba(iClonalgClassifier_M
Anticorpo
p165
(dp166
g3
F0.8064864171340042
sg4
(lp167
F0.08795849894413843
aF-0.01954273774100723
aF0.6768483000000036
aF0.8063915028045912
aF0.3018807533660553
aF0.25967400827868914
aF0.29985086530452654
aF0.5248704230122759
aF0.7257172548107348
aF0.3712976878229735
asba(iClonalgClassifier_M
Anticorpo
p168
(dp169
g3
F0.8064864171340042
sg4
(lp170
F0.3790365162653077
aF0.27816826720058285
aF0.12872376753509693
aF0.5124593752699933
aF0.8346184820368417
aF0.26389185653323477
aF0.551042052188978
aF0.5793712486855426
aF0.7780080478621294
aF0.2928009081249762
asba(iClonalgClassifier_M
Anticorpo
p171
(dp172
g3
F0.8064864171340042
sg4
(lp173
F0.18274754091249104
aF0.6876115699443391
aF0.9450202115070983
aF0.38157890574965125
aF0.28496744726817574
aF0.583537337524436
aF0.5698833685671515
aF0.11597061525871569
aF0.3956317843402468
aF0.2431743213144461
asba(iClonalgClassifier_M
Anticorpo
p174
(dp175
g3
F0.8064864171340042
sg4
(lp176
F0.5787985174454653
aF0.34053379610682744
aF0.6351988533911614
aF0.3287576216526422
aF0.9323544654750272
aF0.7145269714157487
aF0.7045470443844462
aF0.3724164731342848
aF0.38238638912769796
aF0.6083070248447549
asba(iClonalgClassifier_M
Anticorpo
p177
(dp178
g3
F0.8064864171340042
sg4
(lp179
F0.15243040159299626
aF0.7525560231084373
aF0.6417530005873603
aF0.8569453158396451
aF0.5741458518598375
aF0.2088873338750011
aF0.11847819456230632
aF-0.019301781276674368
aF0.5055960236833255
aF0.3216552431333631
asba(iClonalgClassifier_M
Anticorpo
p180
(dp181
g3
F0.8064864171340042
sg4
(lp182
F0.9018060636211699
aF0.4386818570427624
aF0.35878248330181
aF0.49696414337115047
aF0.7274099869533103
aF0.22247263858912972
aF0.5816367853807495
aF0.21883579119556237
aF0.824313663428577
aF0.26354640844543664
asba(iClonalgClassifier_M
Anticorpo
p183
(dp184
g3
F0.8064864171340042
sg4
(lp185
F0.48675261487188987
aF0.22023908544157095
aF0.44729565462574344
aF0.6099283471490061
aF0.05642974966046468
aF0.20583460424265212
aF0.6114608276815671
aF0.30960978725790683
aF0.8451796538801887
aF0.52089167689421
asba(iClonalgClassifier_M
Anticorpo
p186
(dp187
g3
F0.8064864171340042
sg4
(lp188
F0.5728270976742948
aF0.24299878019444876
aF0.40102201627800016
aF0.7389932527167606
aF0.006795921957448662
aF0.3839081869241419
aF0.6351174209213732
aF0.6122406281503677
aF0.043830196755124555
aF0.027833776029035428
asba(iClonalgClassifier_M
Anticorpo
p189
(dp190
g3
F0.8064864171340042
sg4
(lp191
F0.7028321773395334
aF0.1277674905543458
aF0.7550184703100871
aF0.9569769080929985
aF0.9709146088240691
aF0.5977830639766504
aF0.23244779440235902
aF0.07097353612262411
aF0.8996298510092355
aF0.6281377449334299
asba(iClonalgClassifier_M
Anticorpo
p192
(dp193
g3
F0.8064864171340042
sg4
(lp194
F0.8899687588337812
aF0.8544029288674075
aF0.36860077540561653
aF0.38895493594393177
aF0.7943431937788762
aF0.4961776281796754
aF0.6098015460669599
aF0.4127572611443617
aF0.5922740976233293
aF0.5202058451461867
asba(iClonalgClassifier_M
Anticorpo
p195
(dp196
g3
F0.8064864171340042
sg4
(lp197
F0.7650026684782871
aF0.11599878309848612
aF0.6880389639820148
aF0.2589756133445076
aF0.34939045678688635
aF0.7984428396555022
aF0.8467844920798043
aF0.21523891122600283
aF0.22278432973438056
aF0.16444360500833782
asba(iClonalgClassifier_M
Anticorpo
p198
(dp199
g3
F0.8064864171340042
sg4
(lp200
F0.49691287716054955
aF0.436339988202097
aF0.4986275458197545
aF0.45824602109549484
aF0.9668466427081968
aF0.8821664115212012
aF0.9993260495376961
aF0.788138952511972
aF0.06730471924247569
aF0.058324200815433554
asba(iClonalgClassifier_M
Anticorpo
p201
(dp202
g3
F0.8064864171340042
sg4
(lp203
F0.42928952207633236
aF0.6876655990728113
aF0.2716457886800327
aF0.3060813229657311
aF0.13492834021455416
aF0.6529056726937172
aF0.21228243220476586
aF0.8491042593215368
aF0.5274078496426123
aF0.2033066386036608
asba(iClonalgClassifier_M
Anticorpo
p204
(dp205
g3
F0.8064864171340042
sg4
(lp206
F0.5568484494606836
aF0.3489845371778938
aF0.5815274096914194
aF0.10550918491053429
aF0.6194093171521646
aF0.28862007661423295
aF0.1394436931725106
aF0.2930527820609396
aF0.6791392370083182
aF0.3577117054920941
asba(iClonalgClassifier_M
Anticorpo
p207
(dp208
g3
F0.8064864171340042
sg4
(lp209
F0.9711782009898424
aF0.36892827137941875
aF0.2822647590783132
aF0.8701493109272505
aF0.7528821934320651
aF0.5024766849128689
aF0.1082244769143858
aF0.30793894500380325
aF0.933843067898727
aF0.8682394815564725
asba(iClonalgClassifier_M
Anticorpo
p210
(dp211
g3
F0.8064864171340042
sg4
(lp212
F0.1777772513744503
aF0.8496228226468864
aF0.26863252607656796
aF0.8913520508802236
aF-0.04276073124029591
aF0.933519707875466
aF0.18074913225040537
aF0.40136377316030636
aF0.8184616908744647
aF0.4391389960416515
asba(iClonalgClassifier_M
Anticorpo
p213
(dp214
g3
F0.8064864171340042
sg4
(lp215
F0.9841358619132333
aF0.04964068746999975
aF0.21598163324946698
aF0.844458841615381
aF0.05628739468315769
aF0.283265090357555
aF0.19218942289314483
aF0.4494261879987288
aF0.3975143233322652
aF0.12696510725924293
asba(iClonalgClassifier_M
Anticorpo
p216
(dp217
g3
F0.8064864171340042
sg4
(lp218
F0.7459935410118176
aF0.0014243812375918583
aF0.3471296017798603
aF0.31643171245211243
aF0.061636910569711836
aF0.5559324683340563
aF0.5532837936020836
aF0.5741925130793477
aF0.9320661356483955
aF0.15460136614601286
asba(iClonalgClassifier_M
Anticorpo
p219
(dp220
g3
F0.8064864171340042
sg4
(lp221
F0.4514485678175401
aF0.7988534744498343
aF0.16545492247780297
aF0.6829626700308686
aF0.1564024979511161
aF0.4661252739612925
aF0.1350743936044122
aF0.6277018938047935
aF0.965421355294675
aF0.4598548112567315
asba(iClonalgClassifier_M
Anticorpo
p222
(dp223
g3
F0.8064864171340042
sg4
(lp224
F0.543603095510128
aF0.5822709798181516
aF0.5436854980827489
aF0.26448234214340727
aF0.8691319788202903
aF0.47387639188607217
aF0.2623057433530824
aF0.731108207265269
aF0.11165424507225742
aF0.8950109518422771
asba(iClonalgClassifier_M
Anticorpo
p225
(dp226
g3
F0.8064864171340042
sg4
(lp227
F0.2957162351503493
aF0.2407549526166132
aF0.2722359553005284
aF0.5833935555424897
aF0.5986815729388035
aF0.85458881643871
aF0.4892675680083334
aF0.6237731858851712
aF0.822318643671865
aF0.580273056350052
asba(iClonalgClassifier_M
Anticorpo
p228
(dp229
g3
F0.8064864171340042
sg4
(lp230
F0.1647292854880145
aF0.18504356055819735
aF0.8546341472069386
aF0.8947526014861336
aF0.597309603018523
aF0.5512412023565691
aF0.07040551690003882
aF0.988310993886472
aF0.10223988988183502
aF0.9187937506934593
asba(iClonalgClassifier_M
Anticorpo
p231
(dp232
g3
F0.8064864171340042
sg4
(lp233
F0.6944449097280015
aF0.1228309018844307
aF0.6073595505118058
aF0.6539991310392845
aF0.9401145187806595
aF0.9592545844728398
aF0.4957326915697373
aF0.38340562451647253
aF0.7188116875219616
aF0.664532543014653
asba(iClonalgClassifier_M
Anticorpo
p234
(dp235
g3
F0.8064864171340042
sg4
(lp236
F0.24346693561220936
aF0.22924493796270662
aF0.1669034615884032
aF0.6979147654226276
aF0.8257670310964917
aF0.45989705187408403
aF0.2620928993838721
aF0.9525029373692537
aF0.6513492060853352
aF0.2394134006053326
asba(iClonalgClassifier_M
Anticorpo
p237
(dp238
g3
F0.8064864171340042
sg4
(lp239
F0.04472482479749717
aF0.44653929319229557
aF0.8827754119403829
aF0.23412485330207752
aF0.5195852267397747
aF0.890959612036
aF0.5081590017554508
aF0.6338454715513595
aF0.3505189148527549
aF0.20578382743485704
asba(iClonalgClassifier_M
Anticorpo
p240
(dp241
g3
F0.8064864171340042
sg4
(lp242
F1.0127041123768856
aF0.05817726060066335
aF0.8772969581314015
aF0.19803941821928728
aF-0.02867729151869616
aF0.8530520214085647
aF0.35750298174525763
aF0.3846909142431781
aF0.8762687804416261
aF0.6855315743858055
asba(iClonalgClassifier_M
Anticorpo
p243
(dp244
g3
F0.8064864171340042
sg4
(lp245
F0.1900618400943566
aF0.4938105649914496
aF0.18381399874973808
aF0.6287865666721804
aF0.3019294918449486
aF0.7964450521245737
aF0.11844123814509082
aF0.5621307586028197
aF0.26607658864896777
aF0.2470564936498147
asba(iClonalgClassifier_M
Anticorpo
p246
(dp247
g3
F0.8064864171340042
sg4
(lp248
F0.23543944291541144
aF0.6038933933213527
aF0.6093657824652458
aF0.4203688026443459
aF0.414692548764127
aF0.2861926854852609
aF0.4211511957836426
aF0.5128641531586405
aF0.3317673780889177
aF0.6348469367289665
asba(iClonalgClassifier_M
Anticorpo
p249
(dp250
g3
F0.8064864171340042
sg4
(lp251
F0.6990515513800677
aF0.5114094086307889
aF0.44257333577132724
aF0.3399445475022204
aF0.4958951016064525
aF0.45197630517065424
aF0.7480110704981277
aF1.0043219835611468
aF0.4233080202526232
aF0.4936210784553611
asba(iClonalgClassifier_M
Anticorpo
p252
(dp253
g3
F0.8064864171340042
sg4
(lp254
F0.4099312336510876
aF0.7971784585634202
aF0.17073560452209907
aF0.6433932780282753
aF0.6326687424405398
aF0.8599358232224966
aF0.12712852546179987
aF0.35858889856803244
aF0.023524998081442608
aF0.1164944376414134
asba(iClonalgClassifier_M
Anticorpo
p255
(dp256
g3
F0.8064864171340042
sg4
(lp257
F0.6357888218742459
aF0.5712422654535831
aF0.9532457840504942
aF0.47982135206478355
aF0.8255148695628941
aF0.6553862845807734
aF0.05863399976658203
aF0.14621811931509157
aF0.9953996879408598
aF0.17687393052218633
asba(iClonalgClassifier_M
Anticorpo
p258
(dp259
g3
F0.8064864171340042
sg4
(lp260
F0.2077895584798418
aF0.5033022494496345
aF0.28638225250237737
aF0.854758289459588
aF0.7454396732264617
aF0.46246789870675836
aF0.8671704278581873
aF0.6475998077714781
aF0.3859808289411286
aF0.45820938018512675
asba(iClonalgClassifier_M
Anticorpo
p261
(dp262
g3
F0.8064864171340042
sg4
(lp263
F0.8346995767352418
aF0.3238578809781108
aF0.23728427504852526
aF0.9914172847851948
aF0.28743831532319264
aF0.12458823179416312
aF0.6313048838684744
aF0.7264402110048729
aF0.607499031743715
aF0.7207552223965412
asba(iClonalgClassifier_M
Anticorpo
p264
(dp265
g3
F0.8064864171340042
sg4
(lp266
F0.8714291948450567
aF0.7715918652919281
aF0.7316778982272435
aF0.22158656592325798
aF0.8649688508373952
aF0.49302612028105497
aF0.21297710167949757
aF0.7343720229260073
aF0.11783433360149985
aF0.9627190440847172
asba(iClonalgClassifier_M
Anticorpo
p267
(dp268
g3
F0.8064864171340042
sg4
(lp269
F0.3027147339040899
aF0.3379225733641348
aF0.3458827037926212
aF0.9171771245203003
aF0.06701162622133428
aF0.7036295722676053
aF0.7449970737039853
aF0.7853680421960822
aF0.2716793947672675
aF0.23139736885926548
asba(iClonalgClassifier_M
Anticorpo
p270
(dp271
g3
F0.8064864171340042
sg4
(lp272
F0.8223438366767323
aF0.3086954476121383
aF0.0767975003182213
aF0.6279600553407774
aF0.8643922927193767
aF0.5394884307039862
aF0.27341953021079907
aF1.0084569263683536
aF0.7224399139719935
aF0.16709481562795575
asba(iClonalgClassifier_M
Anticorpo
p273
(dp274
g3
F0.8064864171340042
sg4
(lp275
F0.8756430091712472
aF0.6363829580308473
aF0.8888993786427548
aF0.04823641610366769
aF0.4701194658356092
aF0.23623292472801227
aF0.7767264615020293
aF0.6789446161189568
aF0.06357448037508366
aF0.721166784564966
asba(iClonalgClassifier_M
Anticorpo
p276
(dp277
g3
F0.8064864171340042
sg4
(lp278
F0.10218522767698858
aF0.13807710954932667
aF0.8814972400700756
aF0.5686701334544467
aF0.27276653884596364
aF0.2525988108762169
aF0.6380544630448582
aF0.4015659391856382
aF0.7696254954407369
aF0.1426880355260455
asba(iClonalgClassifier_M
Anticorpo
p279
(dp280
g3
F0.8064864171340042
sg4
(lp281
F0.4447513650392045
aF0.7821810801179057
aF0.8559987519567277
aF0.026167935339812
aF0.7087646711076455
aF0.7453871670927709
aF0.7917331227324313
aF0.6195757982352575
aF0.3643763565586423
aF0.3273665420278374
asba(iClonalgClassifier_M
Anticorpo
p282
(dp283
g3
F0.8064864171340042
sg4
(lp284
F0.4452967164186444
aF0.20445611425510699
aF0.21956955134992062
aF0.9091885788608571
aF0.9083085767685456
aF0.5731134391041094
aF0.6929613019182783
aF0.23703927288622384
aF0.2338297290887504
aF0.3326930310285636
asba(iClonalgClassifier_M
Anticorpo
p285
(dp286
g3
F0.8064864171340042
sg4
(lp287
F0.40920032532700595
aF0.5167970244378114
aF0.4273459974846432
aF0.4271462809235587
aF0.061373248532613764
aF0.7042104299842802
aF0.13968949701471528
aF0.6629999934247017
aF0.42279020386190996
aF0.8189746343069932
asba(iClonalgClassifier_M
Anticorpo
p288
(dp289
g3
F0.8064864171340042
sg4
(lp290
F0.7267338952324326
aF0.8576079890255989
aF0.9254332532700407
aF0.353358281212619
aF0.4601883215229036
aF0.8561795973515013
aF0.5668877637357178
aF0.8346862850300701
aF0.2039243303719105
aF0.7678342043624754
asba(iClonalgClassifier_M
Anticorpo
p291
(dp292
g3
F0.8064864171340042
sg4
(lp293
F0.6516015786586082
aF0.7513156094688019
aF0.10505521627944106
aF0.875619304639682
aF0.7246739971091554
aF0.3153376294300341
aF0.9139771396647802
aF0.5680903755287349
aF0.09911335385796377
aF0.4005767832508805
asba(iClonalgClassifier_M
Anticorpo
p294
(dp295
g3
F0.8064864171340042
sg4
(lp296
F0.5123198204447651
aF0.7910444341076758
aF0.6374495660802991
aF0.5661410917130819
aF0.18540818932297404
aF0.17073185981094358
aF0.6831274860261676
aF0.9886070258929291
aF0.05839869508055036
aF0.8239258552903405
asba(iClonalgClassifier_M
Anticorpo
p297
(dp298
g3
F0.8064864171340042
sg4
(lp299
F0.14779930938835303
aF0.22232596338020905
aF0.9117495201997811
aF1.0031097122542936
aF0.14731405709522238
aF0.05400579900213813
aF0.5247617605680379
aF0.9876849658840265
aF0.019956789408877292
aF0.6068181320155063
asba(iClonalgClassifier_M
Anticorpo
p300
(dp301
g3
F0.8064864171340042
sg4
(lp302
F0.5211770461597669
aF0.43236206959487894
aF0.9427870926501636
aF0.7926315500064901
aF0.038213768160385776
aF0.22746260048893738
aF0.8697377428968959
aF0.047978479308735604
aF0.870821620896355
aF0.16474614679127123
asba(iClonalgClassifier_M
Anticorpo
p303
(dp304
g3
F0.8064864171340042
sg4
(lp305
F0.10767271726158137
aF0.709364760111515
aF0.2946775007298024
aF0.753371396778574
aF0.7432786119834399
aF0.9713480858111183
aF0.22914526752417871
aF0.6270614725728868
aF0.32601920882112206
aF0.46994747683333665
asba(iClonalgClassifier_M
Anticorpo
p306
(dp307
g3
F0.8064864171340042
sg4
(lp308
F0.24984598048350748
aF0.4932200412617035
aF0.9701884638253065
aF0.7779415503965487
aF0.06926600506471552
aF0.5507937676205107
aF0.8766979314550476
aF0.8824134810880921
aF0.028696100805239752
aF0.0626158943991216
asba(iClonalgClassifier_M
Anticorpo
p309
(dp310
g3
F0.8064864171340042
sg4
(lp311
F0.23421772755254994
aF0.8921936733614965
aF0.24448306924319113
aF0.7925969019433515
aF0.6015354515181374
aF0.09814135023353193
aF0.6203077066763162
aF0.24412771403232034
aF0.3696967463279933
aF0.3466370905462672
asba(iClonalgClassifier_M
Anticorpo
p312
(dp313
g3
F0.8064864171340042
sg4
(lp314
F0.4847278273471103
aF0.5693047105357643
aF0.04001533602236576
aF0.6859132489047506
aF0.7506632683186147
aF0.29840268410347054
aF0.67906962119106
aF0.9906285651546786
aF0.8311331193616426
aF0.49267547205163903
asba(iClonalgClassifier_M
Anticorpo
p315
(dp316
g3
F0.8064864171340042
sg4
(lp317
F0.9210746415116603
aF0.295105707213706
aF0.6625694956743406
aF0.8983608880443251
aF0.7029760848469824
aF0.6450214300591793
aF0.554104426453645
aF0.5810856630606914
aF0.9701474106554294
aF0.9511837095519716
asba(iClonalgClassifier_M
Anticorpo
p318
(dp319
g3
F0.8064864171340042
sg4
(lp320
F0.873665886354257
aF0.35505112019002616
aF0.2842957808340108
aF0.7125416859234351
aF-0.042139425834644875
aF0.8915332765115588
aF0.9499121115621514
aF0.24927747567933214
aF0.41417746568694125
aF0.5586312798245827
asba(iClonalgClassifier_M
Anticorpo
p321
(dp322
g3
F0.8064864171340042
sg4
(lp323
F0.9380232860587134
aF0.5103975866931008
aF0.4254859238988595
aF0.8081634784462255
aF0.8510856647824667
aF0.5644143749409166
aF0.9180677043698587
aF0.6777952637141696
aF0.14169460529912747
aF0.7204467076887414
asba(iClonalgClassifier_M
Anticorpo
p324
(dp325
g3
F0.8064864171340042
sg4
(lp326
F0.11565372809018708
aF0.7057092276345701
aF0.6733895563507967
aF0.7877913458463152
aF0.4679624483192845
aF0.9487743121376975
aF0.12653976918870347
aF0.10929925007085453
aF0.5116180767952686
aF0.3731585157836326
asba(iClonalgClassifier_M
Anticorpo
p327
(dp328
g3
F0.8064864171340042
sg4
(lp329
F0.3573554288266096
aF0.8462917153486555
aF0.8197659496031239
aF0.6395089178127091
aF0.30792153650723875
aF0.2413736349510203
aF0.6292798606823864
aF0.030037048155086527
aF0.373753324014645
aF0.20168972207097044
asba(iClonalgClassifier_M
Anticorpo
p330
(dp331
g3
F0.8064864171340042
sg4
(lp332
F0.4368114187575824
aF0.7240983630520251
aF0.4040394743868332
aF0.7744488910454237
aF0.6469778496959128
aF0.6292031179115194
aF0.3962748488995117
aF0.13001374560877804
aF0.8555386291043104
aF0.833204989461432
asba(iClonalgClassifier_M
Anticorpo
p333
(dp334
g3
F0.8064864171340042
sg4
(lp335
F0.8350296292101992
aF0.9809228252502208
aF0.8202523422484662
aF0.36825039846793023
aF0.8337234167409048
aF0.8731969841584541
aF0.6642294266483743
aF0.6984022677187708
aF0.6848804111044685
aF0.741829712822353
asba(iClonalgClassifier_M
Anticorpo
p336
(dp337
g3
F0.8064864171340042
sg4
(lp338
F0.5596601184279643
aF0.6981963815866553
aF0.5093201582577561
aF0.290402752855504
aF0.18589443829868393
aF0.30134084414338125
aF0.37629160331283584
aF0.4769832461075481
aF0.5679437664689515
aF0.18123074590440713
asba(iClonalgClassifier_M
Anticorpo
p339
(dp340
g3
F0.8064864171340042
sg4
(lp341
F0.8380089625339154
aF0.35662730719837193
aF0.9589664752387732
aF0.8817592766263597
aF0.8916581070156719
aF0.24075148771475932
aF0.8874036147768094
aF0.39584482515895814
aF0.36233587602679435
aF0.7819562900317334
asba(iClonalgClassifier_M
Anticorpo
p342
(dp343
g3
F0.8064864171340042
sg4
(lp344
F0.1387525318697973
aF0.2316091846023087
aF0.6044500007360167
aF0.36867123099732235
aF0.37688569884408185
aF0.3929670198911337
aF0.2979927830974186
aF0.8756236883968666
aF0.13557668714726936
aF0.06683775487363856
asba(iClonalgClassifier_M
Anticorpo
p345
(dp346
g3
F0.8064864171340042
sg4
(lp347
F0.17337033454490886
aF0.8935160961587284
aF0.22300176575592096
aF0.6576577562714083
aF0.13584019269182088
aF0.8556043000542675
aF0.21886896239058692
aF0.7286735839621761
aF-0.039639446427765124
aF0.471971044404096
asba.