(lp0
(iClonalgClassifier
Anticorpo
p1
(dp2
S'afinidade'
p3
F1.0000785670496513
sS'coordenadas'
p4
(lp5
F0.8146543648449135
aF0.114588300862756
aF0.06773070562255454
aF0.304895587162998
aF0.6635461135700891
aF0.12472380454939042
aF0.1628974278589297
aF0.2990479492942483
aF0.4104317977957082
aF0.21597803752114553
asba(iClonalgClassifier
Anticorpo
p6
(dp7
g3
F0.5789483492683688
sg4
(lp8
F0.3059208128168971
aF0.7394325359513083
aF0.645698716923884
aF-0.011766374842774058
aF0.6012369722599612
aF0.3306956935295256
aF0.34207416995505285
aF0.4514252773456615
aF0.1783930016612577
aF0.17885762582654752
asba(iClonalgClassifier
Anticorpo
p9
(dp10
g3
F0.5519486270352768
sg4
(lp11
F0.8898992024922708
aF0.5768943821494565
aF0.2910707352874016
aF0.4581595846816678
aF0.5052851506064325
aF0.5298585258816011
aF0.14578491570439644
aF0.45103279094919
aF0.4614356444684302
aF0.23910461562629817
asba(iClonalgClassifier
Anticorpo
p12
(dp13
g3
F0.5279503423473249
sg4
(lp14
F0.5606289124924208
aF0.6408590279549523
aF0.5340194843021523
aF0.35497172709832364
aF0.8492094406362705
aF0.24724637601503482
aF0.35958528296704495
aF0.5815046661233536
aF0.5440864250377543
aF0.29286379142483965
asba(iClonalgClassifier
Anticorpo
p15
(dp16
g3
F0.5279503423473249
sg4
(lp17
F0.4095575735334221
aF0.6384564550688343
aF0.6222879897532448
aF0.4705220862522339
aF0.4805309201337437
aF0.5630604095763618
aF0.3879498832338415
aF0.40988463116391455
aF0.3495338483526823
aF0.6277773766436289
asba.