(lp0
(iClonalgClassifier
Anticorpo
p1
(dp2
S'afinidade'
p3
F1.000016898776119
sS'coordenadas'
p4
(lp5
F0.450904136909345
aF0.18696079801244528
aF0.7741596075071496
aF0.20332455424375087
aF0.2200433988960064
aF0.3010167602743951
aF0.25085575263763255
aF0.49790024256311544
aF0.4133483087667645
aF0.44305910320983455
asba(iClonalgClassifier
Anticorpo
p6
(dp7
g3
F0.9913661029092742
sg4
(lp8
F0.9459728501945703
aF0.1264155025177205
aF0.21527690475172756
aF0.2836342644741195
aF0.5553744076385956
aF0.07611555642097616
aF0.010865057704513952
aF0.3219035920012968
aF0.40192321414091686
aF0.08124719854467592
asba(iClonalgClassifier
Anticorpo
p9
(dp10
g3
F0.8598646191350419
sg4
(lp11
F0.374896843769371
aF0.22619077259106643
aF0.6050527829638446
aF0.2274008933020906
aF0.5319476535303841
aF0.27050045870648726
aF0.4468580134550227
aF0.3167511790970353
aF0.5515340892458227
aF0.12153397746831542
asba(iClonalgClassifier
Anticorpo
p12
(dp13
g3
F0.6645020839087266
sg4
(lp14
F0.16952792342783515
aF0.16821496586493392
aF0.863103495745128
aF0.7577701063926638
aF0.6051687477527886
aF0.12048009427294866
aF0.059557787691538355
aF0.6236956954384454
aF0.9338127074961738
aF0.16980571610259793
asba(iClonalgClassifier
Anticorpo
p15
(dp16
g3
F0.5538683146461323
sg4
(lp17
F0.622
aF0.749
aF0.167
aF0.913
aF0.347
aF0.369
aF0.293
aF0.227
aF0.196
aF0.572
asba.