(lp0
(iClonalgClassifier
Anticorpo
p1
(dp2
S'afinidade'
p3
F1.0000193077750372
sS'coordenadas'
p4
(lp5
F0.4308769729492594
aF0.6567769547328585
aF0.46541714222022423
aF0.4946789065904181
aF0.396112167298029
aF0.3814835491006622
aF0.42302179957131425
aF0.3676961953122553
aF0.359703648783895
aF0.18810804169198558
asba(iClonalgClassifier
Anticorpo
p6
(dp7
g3
F0.9174525508614995
sg4
(lp8
F0.6472434942019182
aF0.749863429521546
aF0.778487021287199
aF0.47023792339617665
aF0.5044400318456211
aF0.09178404000243538
aF0.19900852325334112
aF0.39421481895416327
aF0.43526962563566696
aF0.3951036819576515
asba(iClonalgClassifier
Anticorpo
p9
(dp10
g3
F0.789540917805165
sg4
(lp11
F0.3806707867662552
aF0.5534142800787812
aF0.4171639730092093
aF0.8346390501751547
aF0.4527659051916213
aF0.19940967345697924
aF0.3400143831201711
aF0.1697351810360709
aF0.6009762480049808
aF0.44190165491354977
asba(iClonalgClassifier
Anticorpo
p12
(dp13
g3
F0.7147522102533811
sg4
(lp14
F0.5393125308595511
aF0.29264712589894726
aF0.5065781779787184
aF0.11553850721574699
aF0.05798168008053117
aF0.467727809715998
aF0.06585766511462054
aF0.3931559704849518
aF0.25780737681750254
aF0.22668766820313574
asba(iClonalgClassifier
Anticorpo
p15
(dp16
g3
F0.7032531148733029
sg4
(lp17
F0.28884219009172335
aF0.580515047490877
aF0.14497971172188476
aF0.6460295277781711
aF0.36072952733303776
aF0.32967081153187483
aF0.435350531983518
aF0.45896464254526226
aF0.4554509028666676
aF0.324384744847956
asba(iClonalgClassifier
Anticorpo
p18
(dp19
g3
F0.6891312435395185
sg4
(lp20
F0.3318120746124762
aF0.29232415184952093
aF0.27636204456334335
aF0.5006312379354707
aF0.42172461728925037
aF0.536020500251275
aF0.07526813664325294
aF0.3774388403537017
aF0.4771024008319509
aF0.1844233584890604
asba(iClonalgClassifier
Anticorpo
p21
(dp22
g3
F0.5855512779254382
sg4
(lp23
F0.6223341904593591
aF0.3638905811234912
aF0.591307788836441
aF0.5138296176687641
aF0.40662331934045093
aF0.6573523896019119
aF0.4445810668345436
aF0.23874174124661715
aF0.47715141015204005
aF0.06648928883394366
asba(iClonalgClassifier
Anticorpo
p24
(dp25
g3
F0.5546533963172168
sg4
(lp26
F0.42572011382110925
aF0.08706035915637408
aF0.5151027689506951
aF0.4332172106879968
aF0.11840212959704653
aF0.48944726892591395
aF0.37134565364118993
aF0.5622967984634677
aF0.6735701121781339
aF0.23371547349834187
asba(iClonalgClassifier
Anticorpo
p27
(dp28
g3
F0.5546533963172168
sg4
(lp29
F0.7065804037856823
aF0.27786821819786467
aF0.6592297317517142
aF0.5159695848830629
aF0.46078731615058405
aF0.7635030043752145
aF0.1673714638725278
aF0.15476094738580395
aF0.5799809138195752
aF0.4300275120254341
asba(iClonalgClassifier
Anticorpo
p30
(dp31
g3
F0.5546533963172168
sg4
(lp32
F0.791219275503034
aF0.10464620125062542
aF0.0723742903631504
aF0.3436055741623273
aF0.47117751727145724
aF0.3471005321723749
aF0.11590068807857472
aF0.46760068180435244
aF0.2890987110008077
aF0.08991523336366491
asba(iClonalgClassifier
Anticorpo
p33
(dp34
g3
F0.5546533963172168
sg4
(lp35
F0.6813348493664515
aF0.3650678298239923
aF0.31473522198666093
aF0.19733752736377452
aF0.261807785895836
aF0.7563115679377967
aF0.2790432127459756
aF0.58403419899514
aF0.6837465079144402
aF0.2882531828208594
asba(iClonalgClassifier
Anticorpo
p36
(dp37
g3
F0.5546533963172168
sg4
(lp38
F0.3592968544690968
aF0.4059287979208397
aF0.636148065441787
aF0.5996161732697433
aF0.4820920680040125
aF0.602875846828672
aF0.04538248897319503
aF0.7657638199707133
aF0.17344222986926616
aF0.18983823572657949
asba(iClonalgClassifier
Anticorpo
p39
(dp40
g3
F0.5546533963172168
sg4
(lp41
F0.40518565767343867
aF0.10644962496786775
aF0.16687679636494604
aF0.8032441138075959
aF0.5124173755888913
aF0.7464327086441286
aF0.2666113050258009
aF0.23526743713025344
aF0.41974806662930225
aF0.3989854528336777
asba(iClonalgClassifier
Anticorpo
p42
(dp43
g3
F0.5546533963172168
sg4
(lp44
F0.30316544503582094
aF0.43797404277696267
aF0.7687335998926399
aF0.739998488115788
aF0.40684134646776227
aF0.4284947345902903
aF0.759998790644866
aF0.21360827879467328
aF0.5418543911029218
aF0.15004474601077272
asba(iClonalgClassifier
Anticorpo
p45
(dp46
g3
F0.5546533963172168
sg4
(lp47
F0.3266136875639449
aF0.33568770112824275
aF0.5013271803678876
aF0.3603136938732577
aF0.9639275780442549
aF0.5589722663825121
aF0.5674651732224307
aF0.1512719591273035
aF0.1575821580920161
aF0.3703863225415895
asba(iClonalgClassifier
Anticorpo
p48
(dp49
g3
F0.5546533963172168
sg4
(lp50
F0.9402824417704242
aF0.09464431112394402
aF0.310274977459544
aF0.7333486555644655
aF0.20598729912688016
aF0.30029401941733846
aF0.4061386224743972
aF0.1784574872771903
aF0.09864649220558758
aF0.48907622353668445
asba(iClonalgClassifier
Anticorpo
p51
(dp52
g3
F0.5546533963172168
sg4
(lp53
F0.6477601351736566
aF0.6893219968600316
aF0.6571465022761661
aF0.6772569044756632
aF0.8001033252835116
aF0.035494172341279606
aF0.18923039370768766
aF0.6205019168471098
aF0.5714204452308025
aF0.6507875403730291
asba(iClonalgClassifier
Anticorpo
p54
(dp55
g3
F0.5546533963172168
sg4
(lp56
F0.9374009305484567
aF0.6087616375924818
aF0.9326975945681911
aF0.43538027817982655
aF0.17920264059685967
aF0.5684274779517798
aF0.7951587671154898
aF0.11403216661372599
aF0.09345435370167038
aF0.07118836496085687
asba(iClonalgClassifier
Anticorpo
p57
(dp58
g3
F0.5546533963172168
sg4
(lp59
F0.3286942793897633
aF0.6278704258886856
aF0.9025526169235608
aF0.9267850113348904
aF0.2594442740085801
aF0.42637042716375506
aF0.7531009309070037
aF0.1268467357558582
aF0.7083082484979615
aF0.5144621702465294
asba(iClonalgClassifier
Anticorpo
p60
(dp61
g3
F0.5357337806411545
sg4
(lp62
F0.36539579756362434
aF0.34034450560310453
aF0.4783525641287229
aF0.7007970019119215
aF0.2604355251765037
aF0.7399828162867157
aF0.16324267545901872
aF0.18924533025981152
aF0.7947144591408271
aF0.33868989381830683
asba.