(lp0
(iClonalgClassifier_M
Anticorpo
p1
(dp2
S'afinidade'
p3
F1.0000778827816208
sS'coordenadas'
p4
(lp5
F0.6388605579281602
aF0.9167290298564454
aF0.6206519821905958
aF0.6094032759439137
aF0.7545278518345852
aF0.705089754917585
aF0.8001320546873519
aF0.9630664849514925
aF0.5204232170669205
aF0.013301889409447138
asba(iClonalgClassifier_M
Anticorpo
p6
(dp7
g3
F0.8764593382820882
sg4
(lp8
F0.7293743178467864
aF0.6931066805146117
aF0.9669180069168651
aF0.7058982473639541
aF0.5264422018097786
aF0.5000303038695871
aF0.06289397528688379
aF0.8885610482193473
aF0.4705320897963928
aF0.6349008110897082
asba(iClonalgClassifier_M
Anticorpo
p9
(dp10
g3
F0.8404168134138688
sg4
(lp11
F0.8011269639838305
aF0.5272501290685431
aF0.8878575507027366
aF0.8072264621310486
aF0.23209732393337226
aF0.7413191514564548
aF0.45217948983765044
aF0.7191493118147024
aF0.8106652707257358
aF0.4402585392868705
asba(iClonalgClassifier_M
Anticorpo
p12
(dp13
g3
F0.575374842498519
sg4
(lp14
F0.7705075269862806
aF0.5832291311568047
aF0.7711525473068425
aF0.23213220697057788
aF0.579890314456208
aF0.47770374119153264
aF0.5080533239947771
aF0.740524194385301
aF0.8979815255078814
aF0.04879460601101363
asba(iClonalgClassifier_M
Anticorpo
p15
(dp16
g3
F0.49356660302336863
sg4
(lp17
F0.949147230471042
aF0.1491270526320398
aF0.8687085298904788
aF0.6116466097223879
aF0.7047950740237805
aF0.8130703677829186
aF0.10655889711527548
aF0.9599768738773884
aF0.19204090746605373
aF0.15379489968712443
asba.