(lp0
(iClonalgClassifier_M
Anticorpo
p1
(dp2
S'afinidade'
p3
F9.693860633988995
sS'coordenadas'
p4
(lp5
F0.9787492590834108
aF0.6045909643500748
aF0.767171406031062
aF0.17252108176044004
aF0.49558057981931325
aF0.8599999804929865
aF0.27097039206151724
aF0.5295323005059425
aF0.6831597465832643
aF0.59093675986261
asba(iClonalgClassifier_M
Anticorpo
p6
(dp7
g3
F9.693860633988995
sg4
(lp8
F0.13443565228611967
aF0.8693040563815333
aF0.45881123510363925
aF0.7562220997224522
aF0.7702149715352473
aF0.5318833585159375
aF0.40561937097577305
aF0.77741974976371
aF0.4319910146080417
aF0.1693786643556225
asba(iClonalgClassifier_M
Anticorpo
p9
(dp10
g3
F9.693860633988995
sg4
(lp11
F0.82357468598066
aF0.8060210633324985
aF0.6768421256054643
aF0.6817248570666243
aF0.03097819365354741
aF0.9554851185978468
aF0.22992930496698885
aF0.059472253581901086
aF0.7572306053577057
aF0.5267982066446164
asba(iClonalgClassifier_M
Anticorpo
p12
(dp13
g3
F9.693860633988995
sg4
(lp14
F0.4120800377143635
aF0.8980078992355359
aF0.7621873696579791
aF0.30802074304129956
aF0.2279263106976817
aF0.49674706135135743
aF0.17376978948227995
aF0.8917295346094737
aF0.7983126068564436
aF0.7318580776160045
asba(iClonalgClassifier_M
Anticorpo
p15
(dp16
g3
F9.693860633988995
sg4
(lp17
F0.5808097711858057
aF0.7238988961440586
aF0.18161726080315532
aF0.47756839776814897
aF0.11417565702697859
aF0.4305797748216122
aF0.4709598582450711
aF0.7638085902078339
aF0.931278174494985
aF0.40056184612975687
asba(iClonalgClassifier_M
Anticorpo
p18
(dp19
g3
F9.693860633988995
sg4
(lp20
F0.5172428660941831
aF0.49692190551804893
aF0.3724280276008743
aF0.6388210216302249
aF0.32992997820105024
aF0.6926552603124659
aF0.3051770066382004
aF0.30779355595397023
aF0.2678687295505477
aF0.17277359434463252
asba(iClonalgClassifier_M
Anticorpo
p21
(dp22
g3
F9.693860633988995
sg4
(lp23
F0.5369117060092452
aF0.973629412956532
aF0.24181417696157873
aF0.2678623899466673
aF0.9233562547605846
aF0.0023900936599256873
aF0.8646533369386319
aF0.954465269599363
aF0.4668593955070779
aF-0.0011228032180794767
asba(iClonalgClassifier_M
Anticorpo
p24
(dp25
g3
F1.0000197231630088
sg4
(lp26
F0.9320284521539078
aF0.7518824128546223
aF0.9292636714422555
aF0.9039357728551635
aF0.9299261262231988
aF0.4946203353298914
aF0.21965936249876866
aF0.462147204608146
aF0.6297078412997331
aF0.17420698620936909
asba(iClonalgClassifier_M
Anticorpo
p27
(dp28
g3
F0.9177763419420547
sg4
(lp29
F0.9642342027959176
aF0.21923963488387094
aF0.7173506020317013
aF0.6992481538940276
aF0.33374270894703956
aF0.6807805849193224
aF0.4740867427198992
aF0.6749523692540432
aF0.3200895223141308
aF0.1591224700885729
asba(iClonalgClassifier_M
Anticorpo
p30
(dp31
g3
F0.8240349899736099
sg4
(lp32
F0.5649795313838749
aF0.5810819984051102
aF0.8848220113349352
aF0.8682307936868515
aF0.16881547244532263
aF0.37422744525376495
aF0.5928931109234699
aF0.43441433758628106
aF0.6987305037528705
aF0.15574720681889526
asba(iClonalgClassifier_M
Anticorpo
p33
(dp34
g3
F0.7560248669312678
sg4
(lp35
F0.4871098799998883
aF0.6161571942293264
aF0.8240686719336738
aF0.949242897426563
aF0.7600224549377568
aF0.5917699222677543
aF0.36087144475545
aF0.28809824577619336
aF0.5844221317945734
aF0.3480116145016652
asba(iClonalgClassifier_M
Anticorpo
p36
(dp37
g3
F0.7442515013962634
sg4
(lp38
F0.7772117802258439
aF0.2771929934737477
aF0.6010699392464345
aF0.776069910573252
aF0.6527100315502654
aF0.22447371516655906
aF0.06416613237243002
aF0.7133208488985884
aF0.40244712337413113
aF0.6052778037334489
asba(iClonalgClassifier_M
Anticorpo
p39
(dp40
g3
F0.7419060427661892
sg4
(lp41
F0.6810673623074057
aF0.4242442976700047
aF0.8698150945046035
aF0.6016025397106955
aF0.33260399614585884
aF0.22735443351029053
aF0.2270529134995452
aF0.7722873272679106
aF0.9274314847797893
aF0.09848672590236449
asba(iClonalgClassifier_M
Anticorpo
p42
(dp43
g3
F0.7251437772770273
sg4
(lp44
F0.6837177886635385
aF0.07858241581291185
aF0.6597425463777424
aF0.6046220769035086
aF0.7246128418515219
aF0.4666120435333606
aF0.2274725057147965
aF0.9774455666511571
aF0.25111117332611466
aF0.5660136695696846
asba(iClonalgClassifier_M
Anticorpo
p45
(dp46
g3
F0.664078840155334
sg4
(lp47
F0.5532214057929236
aF0.8784241954294033
aF0.6378253267006468
aF0.8859376701110758
aF0.6395849701878441
aF0.36844931165082695
aF0.261500877430619
aF0.5223037835582508
aF0.26564059765920256
aF0.810246778036776
asba(iClonalgClassifier_M
Anticorpo
p48
(dp49
g3
F0.65317129570903
sg4
(lp50
F0.5611570226862899
aF0.6790698475002155
aF0.9636251318504488
aF0.34143393273929307
aF0.6041381983608833
aF0.9176616532414594
aF0.5783213253606566
aF0.9311774405387443
aF0.17965045195386836
aF0.3200103282626921
asba(iClonalgClassifier_M
Anticorpo
p51
(dp52
g3
F0.5996642452032274
sg4
(lp53
F0.4022149609410438
aF0.7732368212430594
aF0.8036710235623052
aF0.7085311697339285
aF0.44883017396244185
aF0.16937711389859525
aF0.6578958594467471
aF0.6032462498944057
aF0.3662166667327824
aF0.8619143392193934
asba(iClonalgClassifier_M
Anticorpo
p54
(dp55
g3
F0.5993807499833682
sg4
(lp56
F0.8236058098139348
aF0.0027457421443218212
aF0.44176518397560416
aF0.44440167508197775
aF0.35361576058584226
aF0.4992648404881358
aF0.26964779737172584
aF0.9655078966552246
aF0.25477246400410786
aF0.013434339447927223
asba(iClonalgClassifier_M
Anticorpo
p57
(dp58
g3
F0.595939912463817
sg4
(lp59
F0.36027386060511557
aF0.11214101097541579
aF0.7667203594920292
aF0.6220784005575056
aF0.8670139843381549
aF0.49574784036121355
aF0.3424055629249525
aF0.8395423195731677
aF0.4635175555496318
aF0.7446753957994595
asba(iClonalgClassifier_M
Anticorpo
p60
(dp61
g3
F0.595120907375846
sg4
(lp62
F0.9207682160587608
aF0.8611894603558182
aF0.5835340375569867
aF0.5102494326724516
aF0.7587363902620077
aF0.5939006716869626
aF0.8810109986947038
aF0.5816275796249694
aF0.8499660172088584
aF0.6616335155355033
asba.