(lp0
(iClonalgClassifier_M
Anticorpo
p1
(dp2
S'afinidade'
p3
F1.0000215010039009
sS'coordenadas'
p4
(lp5
F0.959961714440014
aF0.8550305043481436
aF0.677051500271566
aF0.8790636911070054
aF0.6959708004568151
aF0.4690112651450802
aF0.5500148149434211
aF0.4529852652679037
aF0.44201685026087
aF0.4649047256720654
asba(iClonalgClassifier_M
Anticorpo
p6
(dp7
g3
F0.8027941231553645
sg4
(lp8
F0.8144535491274175
aF0.6181611508865905
aF0.961002149801182
aF0.43021259832770603
aF0.03860005724836368
aF0.5518694530668837
aF0.18286057768648886
aF0.8415094957375006
aF0.6216554881822257
aF0.5388424664263033
asba(iClonalgClassifier_M
Anticorpo
p9
(dp10
g3
F0.7281443416322941
sg4
(lp11
F0.6683977635631089
aF0.3523120734936852
aF0.6543661575215848
aF0.7663121141909962
aF0.8829981610194173
aF0.6642305798956345
aF0.13575193935575722
aF0.8354343726624689
aF0.41877917817425947
aF0.17941104931914126
asba(iClonalgClassifier_M
Anticorpo
p12
(dp13
g3
F0.6902422016480599
sg4
(lp14
F0.920410893710328
aF0.3385344094759208
aF0.8119391361810158
aF0.6767334897827348
aF0.07373288600230597
aF0.9890297954602809
aF0.42097852724290513
aF0.757722994172238
aF0.7467249538958964
aF0.8918109046759589
asba(iClonalgClassifier_M
Anticorpo
p15
(dp16
g3
F0.20021528060475358
sg4
(lp17
F0.634307171452316
aF0.7092724195192988
aF0.23029980918526477
aF0.6549710446937216
aF0.33883226994492077
aF0.6985252195720153
aF0.2102094744113742
aF0.9979345971551864
aF0.21492293970000448
aF0.6211686528781598
asba.