(lp0
(iClonalgClassifier
Anticorpo
p1
(dp2
S'afinidade'
p3
F1.0002386348458296
sS'coordenadas'
p4
(lp5
F0.9820069456660353
aF0.2957233332527244
aF0.6124577640794966
aF0.6172119840432593
aF0.5005448743797708
aF0.3606424438719255
aF0.2135218248641906
aF0.09199313089821032
aF0.48722094762483525
aF0.22835360323426138
asba(iClonalgClassifier
Anticorpo
p6
(dp7
g3
F0.7032074306381844
sg4
(lp8
F0.5204444627467911
aF0.5522041282720623
aF0.7775601938546747
aF0.6027290487268223
aF0.5515110823585426
aF0.2677599032880554
aF0.05563689852640051
aF0.15226583516680708
aF0.46817448252326554
aF0.3534017917343838
asba(iClonalgClassifier
Anticorpo
p9
(dp10
g3
F0.6627898268454582
sg4
(lp11
F0.6788868144549931
aF0.25001103030652105
aF0.8988887041522338
aF0.34893369964500387
aF0.526703947740936
aF0.41406480879423435
aF0.29168538078593476
aF0.13398161991950922
aF0.35165451248689616
aF0.4344250283619527
asba(iClonalgClassifier
Anticorpo
p12
(dp13
g3
F0.24052770512202004
sg4
(lp14
F0.11612617588015699
aF0.47893755877557315
aF0.7456409888345923
aF0.6437742791611217
aF0.5412139472570138
aF0.553974750066865
aF0.2950599009738145
aF0.07585784556868527
aF0.44562603826966535
aF0.2132618393854899
asba(iClonalgClassifier
Anticorpo
p15
(dp16
g3
F0.019604079002674867
sg4
(lp17
F0.299
aF0.776
aF0.37
aF0.059
aF0.466
aF0.422
aF0.137
aF0.291
aF0.517
aF0.528
asba.