(lp0
(iClonalgClassifier
Anticorpo
p1
(dp2
S'afinidade'
p3
F1.0000892911598165
sS'coordenadas'
p4
(lp5
F0.5018448547062581
aF0.4069028504508029
aF0.5358620065169494
aF0.6439704650258248
aF0.30190006155779775
aF0.3917021680277793
aF0.12150989965461213
aF0.227439516892338
aF0.6021343507627066
aF0.3189294514205516
asba(iClonalgClassifier
Anticorpo
p6
(dp7
g3
F0.9112619240452315
sg4
(lp8
F0.8052450679071695
aF0.5039962324489983
aF0.981020817308439
aF0.3930969986174853
aF0.2607727934100627
aF0.0690921672978055
aF0.11084782389824639
aF0.23594423731630124
aF0.4296777065366164
aF0.24619456948524665
asba(iClonalgClassifier
Anticorpo
p9
(dp10
g3
F0.8089402062222151
sg4
(lp11
F0.4795901890695533
aF0.3086130762203498
aF0.5466264852427707
aF0.9861155855936083
aF0.3745442819869832
aF0.21590326675587423
aF0.10193072227805888
aF0.27650613188432516
aF0.24426196086655322
aF0.4107950828156603
asba(iClonalgClassifier
Anticorpo
p12
(dp13
g3
F0.7608723494403998
sg4
(lp14
F0.2544768413289669
aF0.22456900262429533
aF0.38723559972662125
aF0.8136570425255314
aF0.3093301040567526
aF0.46584957453845316
aF0.059121272815044326
aF0.22844385286655264
aF0.41751902530045676
aF0.344206439680113
asba(iClonalgClassifier
Anticorpo
p15
(dp16
g3
F0.7454395301229858
sg4
(lp17
F0.24339432403238834
aF0.415672911942145
aF0.3250801418304828
aF0.7092359803032856
aF0.6962823743969511
aF0.21584515297512022
aF0.057931760703051415
aF0.2538654394135795
aF0.4173665927480339
aF0.04366579119980629
asba(iClonalgClassifier
Anticorpo
p18
(dp19
g3
F0.6674836893884459
sg4
(lp20
F0.7249214706881902
aF0.15635483187187013
aF0.39293935836864047
aF0.3227411454652379
aF0.16578078692707948
aF0.31940761945222085
aF0.27282728655785704
aF0.3470081287003725
aF0.7368202057143164
aF0.14580446540146783
asba(iClonalgClassifier
Anticorpo
p21
(dp22
g3
F0.56365170175508
sg4
(lp23
F0.34846569524662985
aF0.027899992600378138
aF0.2500390013588596
aF0.3313436437604118
aF0.6445774680935062
aF0.140148794114755
aF0.33848489597576353
aF0.3176573043683011
aF0.5962545377546744
aF0.16479411957775691
asba(iClonalgClassifier
Anticorpo
p24
(dp25
g3
F0.5630549801576803
sg4
(lp26
F0.8244909318614424
aF0.14881162901954573
aF0.5558746888761436
aF0.6650612754728931
aF0.2875561686199418
aF0.6762687832213252
aF0.27430688643326323
aF0.18890933267095025
aF0.29857537137332013
aF0.43474703231195333
asba(iClonalgClassifier
Anticorpo
p27
(dp28
g3
F0.5253668518198783
sg4
(lp29
F0.34647735940457597
aF0.6282528352222674
aF0.4784170422312968
aF0.30760075211092414
aF0.06340244126570209
aF0.5188385025829907
aF0.36382683869530363
aF0.06383986481755806
aF0.7260076797541224
aF0.5153784730194925
asba(iClonalgClassifier
Anticorpo
p30
(dp31
g3
F0.4821496472716651
sg4
(lp32
F0.7169980546167344
aF0.35719739937656864
aF0.1644258234928844
aF0.3524041931847787
aF0.11547032188215091
aF0.4626874615138459
aF0.04700133683224185
aF0.6862493885202356
aF0.5543359216799836
aF0.43070148167461497
asba(iClonalgClassifier
Anticorpo
p33
(dp34
g3
F0.46545174875579715
sg4
(lp35
F0.7125942838722115
aF0.510296466668454
aF0.40413996631276006
aF0.0994225972170053
aF0.5716960628287493
aF0.18068020222029596
aF0.49052152269977317
aF0.4933902326987182
aF0.6229767680574705
aF0.3668369934740314
asba(iClonalgClassifier
Anticorpo
p36
(dp37
g3
F0.4474736500969553
sg4
(lp38
F0.7820729437575996
aF0.457308837991679
aF0.3375094958470347
aF0.4561296118993934
aF0.6947746379898894
aF0.5224045412774309
aF0.1551895301879628
aF0.2832333524200378
aF0.7632493857725606
aF-0.018272665374041146
asba(iClonalgClassifier
Anticorpo
p39
(dp40
g3
F0.42854864450539476
sg4
(lp41
F0.5712309375992579
aF0.5610658443628626
aF0.7193942811712893
aF0.3105293488259878
aF0.39007074378084433
aF0.29552565846328005
aF0.16808719530320315
aF0.8172863922171673
aF0.6838196511846019
aF0.09069562739722517
asba(iClonalgClassifier
Anticorpo
p42
(dp43
g3
F0.4240228841540268
sg4
(lp44
F0.38796242684212057
aF0.6927273193885843
aF0.7063781414294619
aF0.7265569253301289
aF0.41616040691460426
aF0.30369532237546315
aF0.035144404816674885
aF0.6778555604155464
aF0.8404487289131063
aF0.07343892450517457
asba(iClonalgClassifier
Anticorpo
p45
(dp46
g3
F0.4240228841540268
sg4
(lp47
F0.6104620639486303
aF0.5190067395408479
aF0.4794817652793545
aF0.4886625842076949
aF0.6638684650608199
aF0.6778355221978561
aF0.32105893281154635
aF0.18620347302824156
aF0.7011706029611107
aF-0.11106035272693625
asba(iClonalgClassifier
Anticorpo
p48
(dp49
g3
F0.4240228841540268
sg4
(lp50
F0.18272409488247002
aF0.5276710862527292
aF0.6779745938533501
aF0.6704182118693434
aF0.48895052201502254
aF0.4266393920692817
aF0.6718625989546633
aF0.16564887315058732
aF0.5397599189841228
aF0.6155835505332898
asba(iClonalgClassifier
Anticorpo
p51
(dp52
g3
F0.4240228841540268
sg4
(lp53
F0.43675362827080005
aF0.5163084447405889
aF0.8733657706865053
aF0.10133532814423067
aF0.6730063335630424
aF0.04410590676234792
aF0.5841859680393484
aF0.6784925395919025
aF0.7204692336768143
aF0.20559637037325035
asba(iClonalgClassifier
Anticorpo
p54
(dp55
g3
F0.4240228841540268
sg4
(lp56
F0.2899256241262273
aF0.3731042311292098
aF0.10198500676389036
aF0.6739864148220303
aF0.14525139663633627
aF0.44632893496104625
aF0.18079875120584948
aF0.849609081888482
aF0.9282522609475159
aF0.4840155454024506
asba(iClonalgClassifier
Anticorpo
p57
(dp58
g3
F0.4240228841540268
sg4
(lp59
F0.6836806351731658
aF0.9420405252904692
aF0.7403253785939975
aF0.07873895647533102
aF0.47038143613061495
aF0.24852086848524585
aF0.2086115686655341
aF0.26134106701603693
aF0.8208385671563314
aF0.7031929131035924
asba(iClonalgClassifier
Anticorpo
p60
(dp61
g3
F0.4240228841540268
sg4
(lp62
F0.913629571389522
aF0.885649034527068
aF0.8869934851603187
aF0.2215365719069406
aF0.2646839548370779
aF0.22223059001685969
aF0.43059896204884635
aF0.45458880707940524
aF0.7816580782006907
aF0.5842225354172444
asba.